

Microchip MPLAB XC8 Assembler V2.10 build 88905656 
                                                                                               Tue Oct 06 14:27:11 2020

Microchip MPLAB XC8 C Compiler v2.10 (Free license) build 20190730164152 Og1 
     1                           	processor	18F26K22
     2                           	fnconf	rparam,??,?,0
     3                           	opt	pw 120
     4                           	opt	flic
     5                           	psect	idataCOMRAM,global,class=CODE,delta=1,noexec
     6                           	psect	smallconst,global,reloc=2,class=SMALLCONST,delta=1,noexec
     7                           	psect	cinit,global,reloc=2,class=CODE,delta=1
     8                           	psect	bssCOMRAM,global,class=COMRAM,space=1,delta=1,noexec
     9                           	psect	dataCOMRAM,global,class=COMRAM,space=1,delta=1,noexec
    10                           	psect	bssBANK0,global,class=BANK0,space=1,delta=1,lowdata,noexec
    11                           	psect	bssBANK1,global,class=BANK1,space=1,delta=1,lowdata,noexec
    12                           	psect	cstackBANK1,global,class=BANK1,space=1,delta=1,noexec
    13                           	psect	cstackCOMRAM,global,class=COMRAM,space=1,delta=1,noexec
    14                           	psect	text0,global,reloc=2,class=CODE,delta=1
    15                           	psect	text1,global,reloc=2,class=CODE,delta=1
    16                           	psect	text2,global,reloc=2,class=CODE,delta=1,group=2
    17                           	psect	text3,global,reloc=2,class=CODE,delta=1
    18                           	psect	text4,global,reloc=2,class=CODE,delta=1
    19                           	psect	text5,global,reloc=2,class=CODE,delta=1,group=2
    20                           	psect	text6,global,reloc=2,class=CODE,delta=1
    21                           	psect	text7,global,reloc=2,class=CODE,delta=1
    22                           	psect	text8,global,reloc=2,class=CODE,delta=1
    23                           	psect	text9,global,reloc=2,class=CODE,delta=1
    24                           	psect	text10,global,reloc=2,class=CODE,delta=1
    25                           	psect	text11,global,reloc=2,class=CODE,delta=1
    26                           	psect	text12,global,reloc=2,class=CODE,delta=1
    27                           	psect	text13,global,reloc=2,class=CODE,delta=1
    28                           	psect	text14,global,reloc=2,class=CODE,delta=1
    29                           	psect	text15,global,reloc=2,class=CODE,delta=1
    30                           	psect	text16,global,reloc=2,class=CODE,delta=1
    31                           	psect	text17,global,reloc=2,class=CODE,delta=1
    32                           	psect	text18,global,reloc=2,class=CODE,delta=1
    33                           	psect	intcode,global,reloc=2,class=CODE,delta=1
    34                           	psect	text20,global,reloc=2,class=CODE,delta=1
    35                           	psect	text21,global,reloc=2,class=CODE,delta=1
    36                           	psect	text22,global,reloc=2,class=CODE,delta=1
    37                           	psect	text23,global,reloc=2,class=CODE,delta=1
    38                           	psect	text24,global,reloc=2,class=CODE,delta=1
    39                           	psect	text25,global,reloc=2,class=CODE,delta=1
    40                           	psect	intsave_regs,global,class=BIGRAM,space=1,delta=1,noexec
    41                           	psect	text26,global,reloc=2,class=CODE,delta=1
    42                           	psect	rparam,global,class=COMRAM,space=1,delta=1,noexec
    43                           	psect	temp,global,ovrld,common,class=COMRAM,space=1,delta=1
    44  0000                     
    45                           ; Version 2.10
    46                           ; Generated 31/07/2019 GMT
    47                           ; 
    48                           ; Copyright © 2019, Microchip Technology Inc. and its subsidiaries ("Microchip")
    49                           ; All rights reserved.
    50                           ; 
    51                           ; This software is developed by Microchip Technology Inc. and its subsidiaries ("Microch
      +                          ip").
    52                           ; 
    53                           ; Redistribution and use in source and binary forms, with or without modification, are
    54                           ; permitted provided that the following conditions are met:
    55                           ; 
    56                           ;     1. Redistributions of source code must retain the above copyright notice, this lis
      +                          t of
    57                           ;        conditions and the following disclaimer.
    58                           ; 
    59                           ;     2. Redistributions in binary form must reproduce the above copyright notice, this 
      +                          list
    60                           ;        of conditions and the following disclaimer in the documentation and/or other
    61                           ;        materials provided with the distribution.
    62                           ; 
    63                           ;     3. Microchip's name may not be used to endorse or promote products derived from th
      +                          is
    64                           ;        software without specific prior written permission.
    65                           ; 
    66                           ; THIS SOFTWARE IS PROVIDED BY MICROCHIP "AS IS" AND ANY EXPRESS OR IMPLIED WARRANTIES,
    67                           ; INCLUDING, BUT NOT LIMITED TO, THE IMPLIED WARRANTIES OF MERCHANTABILITY AND FITNESS F
      +                          OR
    68                           ; PURPOSE ARE DISCLAIMED.  IN NO EVENT SHALL MICROCHIP BE LIABLE FOR ANY DIRECT, INDIREC
      +                          T,
    69                           ; INCIDENTAL, SPECIAL, EXEMPLARY, OR CONSEQUENTIAL DAMAGES (INCLUDING BUT NOT LIMITED TO
    70                           ; PROCUREMENT OF SUBSTITUTE GOODS OR SERVICES; LOSS OF USE, DATA OR PROFITS; OR BUSINESS
    71                           ; INTERRUPTION) HOWSOEVER CAUSED AND ON ANY THEORY OF LIABILITY, WHETHER IN CONTRACT, ST
      +                          RICT
    72                           ; LIABILITY, OR TORT (INCLUDING NEGLIGENCE OR OTHERWISE) ARISING IN ANY WAY OUT OF THE U
      +                          SE OF
    73                           ; THIS SOFTWARE, EVEN IF ADVISED OF THE POSSIBILITY OF SUCH DAMAGE.
    74                           ; 
    75                           ; 
    76                           ; Code-generator required, PIC18F26K22 Definitions
    77                           ; 
    78                           ; SFR Addresses
    79  0000                     
    80                           	psect	idataCOMRAM
    81  00160E                     __pidataCOMRAM:
    82                           	opt callstack 0
    83                           
    84                           ;initializer for _tempaddrTC74
    85  00160E  48                 	db	72
    86                           
    87                           ;initializer for _displayAddr
    88  00160F  3C                 	db	60
    89                           
    90                           ;initializer for _h_string
    91  001610  40                 	db	64
    92  001611  48                 	db	72
    93  001612  65                 	db	101
    94  001613  6C                 	db	108
    95  001614  6C                 	db	108
    96  001615  6F                 	db	111
    97  001616  20                 	db	32
    98  001617  57                 	db	87
    99  001618  6F                 	db	111
   100  001619  72                 	db	114
   101  00161A  6C                 	db	108
   102  00161B  64                 	db	100
   103  00161C  21                 	db	33
   104  00161D  00                 	db	0
   105                           
   106                           ;initializer for _displayInit
   107  00161E  00                 	db	0
   108  00161F  38                 	db	56
   109  001620  06                 	db	6
   110  001621  0F                 	db	15
   111  0000                     _ANSELCbits	set	3898
   112  0000                     _ANSELA	set	3896
   113  0000                     _ANSELB	set	3897
   114  0000                     _ANSELC	set	3898
   115  0000                     _SSPBUF	set	4041
   116  0000                     _SSP1STATbits	set	4039
   117  0000                     _SSP1BUF	set	4041
   118  0000                     _SSP1CON2bits	set	4037
   119  0000                     _SSP1CON2	set	4037
   120  0000                     _SSP1CON1	set	4038
   121  0000                     _SSP1ADD	set	4040
   122  0000                     _TRISCbits	set	3988
   123  0000                     _RCREG1	set	4014
   124  0000                     _RCSTA1bits	set	4011
   125  0000                     _TXREG1	set	4013
   126  0000                     _TXSTA1bits	set	4012
   127  0000                     _SPBRGH1	set	4016
   128  0000                     _SPBRG1	set	4015
   129  0000                     _TXSTA1	set	4012
   130  0000                     _RCSTA1	set	4011
   131  0000                     _BAUDCON1	set	4024
   132  0000                     _PIR1bits	set	3998
   133  0000                     _PIE1bits	set	3997
   134  0000                     _RCONbits	set	4048
   135  0000                     _OSCTUNE	set	3995
   136  0000                     _OSCCON2	set	4050
   137  0000                     _OSCCON	set	4051
   138  0000                     _INTCONbits	set	4082
   139  0000                     _INTCON2bits	set	4081
   140  0000                     _WPUB	set	3937
   141  0000                     _TRISC	set	3988
   142  0000                     _TRISB	set	3987
   143  0000                     _TRISA	set	3986
   144  0000                     _LATC	set	3979
   145  0000                     _LATB	set	3978
   146  0000                     _LATA	set	3977
   147  0000                     _PLLRDY	set	32407
   148                           
   149                           	psect	smallconst
   150  001000                     __psmallconst:
   151                           	opt callstack 0
   152  001000  00                 	db	0
   153  001001                     STR_2:
   154  001001  4D                 	db	77	;'M'
   155  001002  6F                 	db	111	;'o'
   156  001003  64                 	db	100	;'d'
   157  001004  74                 	db	116	;'t'
   158  001005  6F                 	db	111	;'o'
   159  001006  67                 	db	103	;'g'
   160  001007  20                 	db	32
   161  001008  4E                 	db	78	;'N'
   162  001009  41                 	db	65	;'A'
   163  00100A  43                 	db	67	;'C'
   164  00100B  4B                 	db	75	;'K'
   165  00100C  20                 	db	32
   166  00100D  66                 	db	102	;'f'
   167  00100E  72                 	db	114	;'r'
   168  00100F  61                 	db	97	;'a'
   169  001010  20                 	db	32
   170  001011  73                 	db	115	;'s'
   171  001012  6C                 	db	108	;'l'
   172  001013  61                 	db	97	;'a'
   173  001014  76                 	db	118	;'v'
   174  001015  65                 	db	101	;'e'
   175  001016  6E                 	db	110	;'n'
   176  001017  0D                 	db	13
   177  001018  0A                 	db	10
   178  001019  00                 	db	0
   179  00101A                     STR_1:
   180  00101A  4D                 	db	77	;'M'
   181  00101B  6F                 	db	111	;'o'
   182  00101C  64                 	db	100	;'d'
   183  00101D  74                 	db	116	;'t'
   184  00101E  6F                 	db	111	;'o'
   185  00101F  67                 	db	103	;'g'
   186  001020  20                 	db	32
   187  001021  41                 	db	65	;'A'
   188  001022  43                 	db	67	;'C'
   189  001023  4B                 	db	75	;'K'
   190  001024  20                 	db	32
   191  001025  66                 	db	102	;'f'
   192  001026  72                 	db	114	;'r'
   193  001027  61                 	db	97	;'a'
   194  001028  20                 	db	32
   195  001029  73                 	db	115	;'s'
   196  00102A  6C                 	db	108	;'l'
   197  00102B  61                 	db	97	;'a'
   198  00102C  76                 	db	118	;'v'
   199  00102D  65                 	db	101	;'e'
   200  00102E  6E                 	db	110	;'n'
   201  00102F  0D                 	db	13
   202  001030  0A                 	db	10
   203  001031  00                 	db	0
   204  001032                     STR_3:
   205  001032  53                 	db	83	;'S'
   206  001033  6C                 	db	108	;'l'
   207  001034  61                 	db	97	;'a'
   208  001035  76                 	db	118	;'v'
   209  001036  65                 	db	101	;'e'
   210  001037  6E                 	db	110	;'n'
   211  001038  20                 	db	32
   212  001039  73                 	db	115	;'s'
   213  00103A  76                 	db	118	;'v'
   214  00103B  61                 	db	97	;'a'
   215  00103C  72                 	db	114	;'r'
   216  00103D  65                 	db	101	;'e'
   217  00103E  64                 	db	100	;'d'
   218  00103F  65                 	db	101	;'e'
   219  001040  20                 	db	32
   220  001041  69                 	db	105	;'i'
   221  001042  6B                 	db	107	;'k'
   222  001043  6B                 	db	107	;'k'
   223  001044  65                 	db	101	;'e'
   224  001045  0D                 	db	13
   225  001046  0A                 	db	10
   226  001047  00                 	db	0
   227                           
   228                           ; #config settings
   229  001048  00                 	db	0	; dummy byte at the end
   230  0000                     
   231                           	psect	cinit
   232  0014D2                     __pcinit:
   233                           	opt callstack 0
   234  0014D2                     start_initialization:
   235                           	opt callstack 0
   236  0014D2                     __initialization:
   237                           	opt callstack 0
   238                           
   239                           ; Initialize objects allocated to COMRAM (20 bytes)
   240                           ; load TBLPTR registers with __pidataCOMRAM
   241  0014D2  0E0E               	movlw	low __pidataCOMRAM
   242  0014D4  6EF6               	movwf	tblptrl,c
   243  0014D6  0E16               	movlw	high __pidataCOMRAM
   244  0014D8  6EF7               	movwf	tblptrh,c
   245  0014DA  0E00               	movlw	low (__pidataCOMRAM shr (0+16))
   246  0014DC  6EF8               	movwf	tblptru,c
   247  0014DE  EE00  F047         	lfsr	0,__pdataCOMRAM
   248  0014E2  EE10 F014          	lfsr	1,20
   249  0014E6                     copy_data0:
   250  0014E6  0009               	tblrd		*+
   251  0014E8  CFF5 FFEE          	movff	tablat,postinc0
   252  0014EC  50E5               	movf	postdec1,w,c
   253  0014EE  50E1               	movf	fsr1l,w,c
   254  0014F0  E1FA               	bnz	copy_data0
   255                           
   256                           ; Clear objects allocated to BANK1 (64 bytes)
   257  0014F2  EE01  F000         	lfsr	0,__pbssBANK1
   258  0014F6  0E40               	movlw	64
   259  0014F8                     clear_0:
   260  0014F8  6AEE               	clrf	postinc0,c
   261  0014FA  06E8               	decf	wreg,f,c
   262  0014FC  E1FD               	bnz	clear_0
   263                           
   264                           ; Clear objects allocated to BANK0 (160 bytes)
   265  0014FE  EE00  F060         	lfsr	0,__pbssBANK0
   266  001502  0EA0               	movlw	160
   267  001504                     clear_1:
   268  001504  6AEE               	clrf	postinc0,c
   269  001506  06E8               	decf	wreg,f,c
   270  001508  E1FD               	bnz	clear_1
   271                           
   272                           ; Clear objects allocated to COMRAM (29 bytes)
   273  00150A  EE00  F02A         	lfsr	0,__pbssCOMRAM
   274  00150E  0E1D               	movlw	29
   275  001510                     clear_2:
   276  001510  6AEE               	clrf	postinc0,c
   277  001512  06E8               	decf	wreg,f,c
   278  001514  E1FD               	bnz	clear_2
   279  001516                     end_of_initialization:
   280                           	opt callstack 0
   281  001516                     __end_of__initialization:
   282                           	opt callstack 0
   283  001516  905B               	bcf	int$flags,0,c	;clear compiler interrupt flag (level 1)
   284  001518  925B               	bcf	int$flags,1,c	;clear compiler interrupt flag (level 2)
   285  00151A  0100               	movlb	0
   286  00151C  EFDE  F009         	goto	_main	;jump to C main() function
   287                           
   288                           	psect	bssCOMRAM
   289  00002A                     __pbssCOMRAM:
   290                           	opt callstack 0
   291  00002A                     _data_out:
   292                           	opt callstack 0
   293  00002A                     	ds	4
   294  00002E                     _nout:
   295                           	opt callstack 0
   296  00002E                     	ds	2
   297  000030                     _width:
   298                           	opt callstack 0
   299  000030                     	ds	2
   300  000032                     _prec:
   301                           	opt callstack 0
   302  000032                     	ds	2
   303  000034                     _flags:
   304                           	opt callstack 0
   305  000034                     	ds	2
   306  000036                     _EUSART1_ErrorHandler:
   307                           	opt callstack 0
   308  000036                     	ds	2
   309  000038                     _EUSART1_OverrunErrorHandler:
   310                           	opt callstack 0
   311  000038                     	ds	2
   312  00003A                     _EUSART1_FramingErrorHandler:
   313                           	opt callstack 0
   314  00003A                     	ds	2
   315  00003C                     _EUSART1_RxDefaultInterruptHandler:
   316                           	opt callstack 0
   317  00003C                     	ds	2
   318  00003E                     _EUSART1_TxDefaultInterruptHandler:
   319                           	opt callstack 0
   320  00003E                     	ds	2
   321  000040                     _eusart1RxLastError:
   322                           	opt callstack 0
   323  000040                     	ds	1
   324  000041                     _eusart1RxCount:
   325                           	opt callstack 0
   326  000041                     	ds	1
   327  000042                     _eusart1RxTail:
   328                           	opt callstack 0
   329  000042                     	ds	1
   330  000043                     _eusart1RxHead:
   331                           	opt callstack 0
   332  000043                     	ds	1
   333  000044                     _eusart1TxBufferRemaining:
   334                           	opt callstack 0
   335  000044                     	ds	1
   336  000045                     _eusart1TxTail:
   337                           	opt callstack 0
   338  000045                     	ds	1
   339  000046                     _eusart1TxHead:
   340                           	opt callstack 0
   341  000046                     	ds	1
   342                           
   343                           	psect	dataCOMRAM
   344  000047                     __pdataCOMRAM:
   345                           	opt callstack 0
   346  000047                     _tempaddrTC74:
   347                           	opt callstack 0
   348  000047                     	ds	1
   349  000048                     _displayAddr:
   350                           	opt callstack 0
   351  000048                     	ds	1
   352  000049                     _h_string:
   353                           	opt callstack 0
   354  000049                     	ds	14
   355  000057                     _displayInit:
   356                           	opt callstack 0
   357  000057                     	ds	4
   358                           
   359                           	psect	bssBANK0
   360  000060                     __pbssBANK0:
   361                           	opt callstack 0
   362  000060                     _eusart1RxStatusBuffer:
   363                           	opt callstack 0
   364  000060                     	ds	64
   365  0000A0                     _eusart1TxBuffer:
   366                           	opt callstack 0
   367  0000A0                     	ds	64
   368  0000E0                     	ds	32
   369                           
   370                           	psect	bssBANK1
   371  000100                     __pbssBANK1:
   372                           	opt callstack 0
   373  000100                     _eusart1RxBuffer:
   374                           	opt callstack 0
   375  000100                     	ds	64
   376                           
   377                           	psect	cstackBANK1
   378  000140                     __pcstackBANK1:
   379                           	opt callstack 0
   380  000140                     ??_main:
   381                           
   382                           ; 1 bytes @ 0x0
   383  000140                     	ds	2
   384                           
   385                           	psect	cstackCOMRAM
   386  000001                     __pcstackCOMRAM:
   387                           	opt callstack 0
   388  000001                     ??_INTERRUPT_InterruptManager:
   389  000001                     
   390                           ; 1 bytes @ 0x0
   391  000001                     	ds	4
   392  000005                     EUSART1_Write@txData:
   393                           	opt callstack 0
   394  000005                     EUSART1_SetFramingErrorHandler@interruptHandler:
   395                           	opt callstack 0
   396  000005                     EUSART1_SetOverrunErrorHandler@interruptHandler:
   397                           	opt callstack 0
   398  000005                     EUSART1_SetErrorHandler@interruptHandler:
   399                           	opt callstack 0
   400  000005                     EUSART1_SetTxInterruptHandler@interruptHandler:
   401                           	opt callstack 0
   402  000005                     EUSART1_SetRxInterruptHandler@interruptHandler:
   403                           	opt callstack 0
   404                           
   405                           ; 2 bytes @ 0x4
   406  000005                     	ds	1
   407  000006                     putch@txData:
   408                           	opt callstack 0
   409                           
   410                           ; 1 bytes @ 0x5
   411  000006                     	ds	1
   412  000007                     fputc@c:
   413                           	opt callstack 0
   414                           
   415                           ; 2 bytes @ 0x6
   416  000007                     	ds	2
   417  000009                     fputc@fp:
   418                           	opt callstack 0
   419                           
   420                           ; 2 bytes @ 0x8
   421  000009                     	ds	2
   422  00000B                     ??_fputc:
   423                           
   424                           ; 1 bytes @ 0xA
   425  00000B                     	ds	5
   426  000010                     ?_vfpfcnvrt:
   427                           	opt callstack 0
   428  000010                     vfpfcnvrt@fp:
   429                           	opt callstack 0
   430                           
   431                           ; 2 bytes @ 0xF
   432  000010                     	ds	2
   433  000012                     vfpfcnvrt@fmt:
   434                           	opt callstack 0
   435                           
   436                           ; 2 bytes @ 0x11
   437  000012                     	ds	2
   438  000014                     vfpfcnvrt@ap:
   439                           	opt callstack 0
   440                           
   441                           ; 2 bytes @ 0x13
   442  000014                     	ds	2
   443  000016                     ?_vfprintf:
   444                           	opt callstack 0
   445  000016                     vfprintf@fp:
   446                           	opt callstack 0
   447                           
   448                           ; 2 bytes @ 0x15
   449  000016                     	ds	2
   450  000018                     vfprintf@fmt:
   451                           	opt callstack 0
   452                           
   453                           ; 2 bytes @ 0x17
   454  000018                     	ds	2
   455  00001A                     vfprintf@ap:
   456                           	opt callstack 0
   457                           
   458                           ; 2 bytes @ 0x19
   459  00001A                     	ds	2
   460  00001C                     vfprintf@cfmt:
   461                           	opt callstack 0
   462                           
   463                           ; 2 bytes @ 0x1B
   464  00001C                     	ds	2
   465  00001E                     ?_printf:
   466                           	opt callstack 0
   467  00001E                     printf@fmt:
   468                           	opt callstack 0
   469                           
   470                           ; 2 bytes @ 0x1D
   471  00001E                     	ds	2
   472  000020                     
   473                           ; 1 bytes @ 0x1F
   474  000020                     	ds	2
   475  000022                     printf@ap:
   476                           	opt callstack 0
   477                           
   478                           ; 2 bytes @ 0x21
   479  000022                     	ds	2
   480  000024                     i2c_write@data:
   481                           	opt callstack 0
   482                           
   483                           ; 2 bytes @ 0x23
   484  000024                     	ds	2
   485  000026                     i2c_write@length:
   486                           	opt callstack 0
   487                           
   488                           ; 1 bytes @ 0x25
   489  000026                     	ds	1
   490  000027                     i2c_write@addr:
   491                           	opt callstack 0
   492                           
   493                           ; 1 bytes @ 0x26
   494  000027                     	ds	1
   495  000028                     i2c_write@targetAddr:
   496                           	opt callstack 0
   497                           
   498                           ; 1 bytes @ 0x27
   499  000028                     	ds	1
   500  000029                     i2c_write@i:
   501                           	opt callstack 0
   502                           
   503                           ; 1 bytes @ 0x28
   504  000029                     	ds	1
   505                           
   506 ;;
   507 ;;Main: autosize = 0, tempsize = 2, incstack = 0, save=0
   508 ;;
   509 ;; *************** function _main *****************
   510 ;; Defined at:
   511 ;;		line 25 in file "main.c"
   512 ;; Parameters:    Size  Location     Type
   513 ;;		None
   514 ;; Auto vars:     Size  Location     Type
   515 ;;		None
   516 ;; Return value:  Size  Location     Type
   517 ;;                  1    wreg      void 
   518 ;; Registers used:
   519 ;;		wreg, fsr1l, fsr1h, fsr2l, fsr2h, status,2, status,0, tblptrl, tblptrh, tblptru, cstack
   520 ;; Tracked objects:
   521 ;;		On entry : 0/0
   522 ;;		On exit  : 0/0
   523 ;;		Unchanged: 0/0
   524 ;; Data sizes:     COMRAM   BANK0   BANK1   BANK2   BANK3   BANK4   BANK5   BANK6   BANK7   BANK8   BANK9  BANK10  BANK1
      +1  BANK12  BANK13  BANK14  BANK15
   525 ;;      Params:         0       0       0       0       0       0       0       0       0       0       0       0       
      +0       0       0       0       0
   526 ;;      Locals:         0       0       0       0       0       0       0       0       0       0       0       0       
      +0       0       0       0       0
   527 ;;      Temps:          0       0       2       0       0       0       0       0       0       0       0       0       
      +0       0       0       0       0
   528 ;;      Totals:         0       0       2       0       0       0       0       0       0       0       0       0       
      +0       0       0       0       0
   529 ;;Total ram usage:        2 bytes
   530 ;; Hardware stack levels required when called:   11
   531 ;; This function calls:
   532 ;;		_SYSTEM_Initialize
   533 ;;		_i2c_init
   534 ;;		_i2c_write
   535 ;; This function is called by:
   536 ;;		Startup code after reset
   537 ;; This function uses a non-reentrant model
   538 ;;
   539                           
   540                           	psect	text0
   541  0013BC                     __ptext0:
   542                           	opt callstack 0
   543  0013BC                     _main:
   544                           	opt callstack 20
   545  0013BC                     
   546                           ;main.c: 28:     SYSTEM_Initialize();
   547  0013BC  EC11  F00B         	call	_SYSTEM_Initialize	;wreg free
   548  0013C0                     
   549                           ;main.c: 29:     i2c_init();
   550  0013C0  ECFB  F00A         	call	_i2c_init	;wreg free
   551  0013C4                     
   552                           ;main.c: 30:     i2c_write(displayAddr, displayInit, 4);
   553  0013C4  0E57               	movlw	low _displayInit
   554  0013C6  6E24               	movwf	i2c_write@data^0,c
   555  0013C8  0E00               	movlw	high _displayInit
   556  0013CA  6E25               	movwf	(i2c_write@data+1)^0,c
   557  0013CC  0E04               	movlw	4
   558  0013CE  6E26               	movwf	i2c_write@length^0,c
   559  0013D0  0E3C               	movlw	60
   560  0013D2  EC9D  F008         	call	_i2c_write
   561  0013D6                     
   562                           ;main.c: 31:     i2c_write(displayAddr, h_string, 12);
   563  0013D6  0E49               	movlw	low _h_string
   564  0013D8  6E24               	movwf	i2c_write@data^0,c
   565  0013DA  0E00               	movlw	high _h_string
   566  0013DC  6E25               	movwf	(i2c_write@data+1)^0,c
   567  0013DE  0E0C               	movlw	12
   568  0013E0  6E26               	movwf	i2c_write@length^0,c
   569  0013E2  0E3C               	movlw	60
   570  0013E4  EC9D  F008         	call	_i2c_write
   571  0013E8                     l1599:
   572                           
   573                           ;main.c: 49:     {;main.c: 50:         i2c_write(displayAddr, h_string, 12);
   574  0013E8  0E49               	movlw	low _h_string
   575  0013EA  6E24               	movwf	i2c_write@data^0,c
   576  0013EC  0E00               	movlw	high _h_string
   577  0013EE  6E25               	movwf	(i2c_write@data+1)^0,c
   578  0013F0  0E0C               	movlw	12
   579  0013F2  6E26               	movwf	i2c_write@length^0,c
   580  0013F4  0E3C               	movlw	60
   581  0013F6  EC9D  F008         	call	_i2c_write
   582  0013FA                     
   583                           ;main.c: 51:         _delay((unsigned long)((1000)*(64000000/4000.0)));
   584  0013FA  0E52               	movlw	82
   585  0013FC  0101               	movlb	1	; () banked
   586  0013FE  6F41               	movwf	(??_main+1)& (0+255),b
   587  001400  0E2B               	movlw	43
   588  001402  6F40               	movwf	??_main& (0+255),b
   589  001404  0E00               	movlw	0
   590  001406                     u807:
   591  001406  2EE8               	decfsz	wreg,f,c
   592  001408  D7FE               	bra	u807
   593  00140A  2F40               	decfsz	??_main& (0+255),f,b
   594  00140C  D7FC               	bra	u807
   595  00140E  2F41               	decfsz	(??_main+1)& (0+255),f,b
   596  001410  D7FA               	bra	u807
   597  001412  F000               	nop	
   598  001414  EFF4  F009         	goto	l1599
   599  001418  EF56  F000         	goto	start
   600  00141C                     __end_of_main:
   601                           	opt callstack 0
   602                           
   603 ;; *************** function _i2c_write *****************
   604 ;; Defined at:
   605 ;;		line 72 in file "main.c"
   606 ;; Parameters:    Size  Location     Type
   607 ;;  addr            1    wreg     unsigned char 
   608 ;;  data            2   35[COMRAM] PTR unsigned char 
   609 ;;		 -> h_string(14), displayInit(4), 
   610 ;;  length          1   37[COMRAM] unsigned char 
   611 ;; Auto vars:     Size  Location     Type
   612 ;;  addr            1   38[COMRAM] unsigned char 
   613 ;;  i               1   40[COMRAM] unsigned char 
   614 ;;  targetAddr      1   39[COMRAM] unsigned char 
   615 ;; Return value:  Size  Location     Type
   616 ;;                  1    wreg      void 
   617 ;; Registers used:
   618 ;;		wreg, fsr1l, fsr1h, fsr2l, fsr2h, status,2, status,0, tblptrl, tblptrh, tblptru, cstack
   619 ;; Tracked objects:
   620 ;;		On entry : 0/0
   621 ;;		On exit  : 0/0
   622 ;;		Unchanged: 0/0
   623 ;; Data sizes:     COMRAM   BANK0   BANK1   BANK2   BANK3   BANK4   BANK5   BANK6   BANK7   BANK8   BANK9  BANK10  BANK1
      +1  BANK12  BANK13  BANK14  BANK15
   624 ;;      Params:         3       0       0       0       0       0       0       0       0       0       0       0       
      +0       0       0       0       0
   625 ;;      Locals:         3       0       0       0       0       0       0       0       0       0       0       0       
      +0       0       0       0       0
   626 ;;      Temps:          0       0       0       0       0       0       0       0       0       0       0       0       
      +0       0       0       0       0
   627 ;;      Totals:         6       0       0       0       0       0       0       0       0       0       0       0       
      +0       0       0       0       0
   628 ;;Total ram usage:        6 bytes
   629 ;; Hardware stack levels used:    1
   630 ;; Hardware stack levels required when called:   10
   631 ;; This function calls:
   632 ;;		_printf
   633 ;; This function is called by:
   634 ;;		_main
   635 ;; This function uses a non-reentrant model
   636 ;;
   637                           
   638                           	psect	text1
   639  00113A                     __ptext1:
   640                           	opt callstack 0
   641  00113A                     _i2c_write:
   642                           	opt callstack 20
   643                           
   644                           ;incstack = 0
   645                           ;i2c_write@addr stored from wreg
   646  00113A  6E27               	movwf	i2c_write@addr^0,c
   647  00113C                     
   648                           ;main.c: 72: void i2c_write(uint8_t addr, uint8_t *data, uint8_t length);main.c: 73: {;m
      +                          ain.c: 74:     uint8_t targetAddr = addr << 1 + 0;
   649  00113C  5027               	movf	i2c_write@addr^0,w,c
   650  00113E  2427               	addwf	i2c_write@addr^0,w,c
   651  001140  6E28               	movwf	i2c_write@targetAddr^0,c
   652  001142                     
   653                           ;main.c: 77:     SSP1CON2bits.SEN = 1;
   654  001142  80C5               	bsf	197,0,c	;volatile
   655  001144                     l283:
   656  001144  B0C5               	btfsc	197,0,c	;volatile
   657  001146  EFA7  F008         	goto	u661
   658  00114A  EFA9  F008         	goto	u660
   659  00114E                     u661:
   660  00114E  EFA2  F008         	goto	l283
   661  001152                     u660:
   662  001152                     
   663                           ;main.c: 81:     SSP1BUF = targetAddr;
   664  001152  C028  FFC9         	movff	i2c_write@targetAddr,4041	;volatile
   665  001156                     l286:
   666  001156  B4C7               	btfsc	199,2,c	;volatile
   667  001158  EFB0  F008         	goto	u671
   668  00115C  EFB2  F008         	goto	u670
   669  001160                     u671:
   670  001160  EFAB  F008         	goto	l286
   671  001164                     u670:
   672  001164                     
   673                           ;main.c: 85:     if(SSP1CON2bits.ACKSTAT == 0)
   674  001164  BCC5               	btfsc	197,6,c	;volatile
   675  001166  EFB7  F008         	goto	u681
   676  00116A  EFB9  F008         	goto	u680
   677  00116E                     u681:
   678  00116E  EFF5  F008         	goto	l1561
   679  001172                     u680:
   680  001172                     
   681                           ;main.c: 86:     {;main.c: 87:         for(uint8_t i=0; i < length; i++)
   682  001172  0E00               	movlw	0
   683  001174  6E29               	movwf	i2c_write@i^0,c
   684  001176  EFE2  F008         	goto	l1559
   685  00117A                     l1551:
   686                           
   687                           ;main.c: 88:         {;main.c: 89:             SSPBUF = (uint8_t) data[i];
   688  00117A  5029               	movf	i2c_write@i^0,w,c
   689  00117C  2424               	addwf	i2c_write@data^0,w,c
   690  00117E  6ED9               	movwf	fsr2l,c
   691  001180  0E00               	movlw	0
   692  001182  2025               	addwfc	(i2c_write@data+1)^0,w,c
   693  001184  6EDA               	movwf	fsr2h,c
   694  001186  50DF               	movf	indf2,w,c
   695  001188  6EC9               	movwf	201,c	;volatile
   696  00118A                     l292:
   697  00118A  B4C7               	btfsc	199,2,c	;volatile
   698  00118C  EFCA  F008         	goto	u691
   699  001190  EFCC  F008         	goto	u690
   700  001194                     u691:
   701  001194  EFC5  F008         	goto	l292
   702  001198                     u690:
   703  001198                     
   704                           ;main.c: 92:             if(SSP1CON2bits.ACKSTAT == 0)
   705  001198  BCC5               	btfsc	197,6,c	;volatile
   706  00119A  EFD1  F008         	goto	u701
   707  00119E  EFD3  F008         	goto	u700
   708  0011A2                     u701:
   709  0011A2  EFDB  F008         	goto	l1555
   710  0011A6                     u700:
   711  0011A6                     
   712                           ;main.c: 93:             {;main.c: 94:                 printf("Modtog ACK fra slaven\r\n
      +                          ");
   713  0011A6  0E1A               	movlw	low STR_1
   714  0011A8  6E1E               	movwf	printf@fmt^0,c
   715  0011AA  0E10               	movlw	high STR_1
   716  0011AC  6E1F               	movwf	(printf@fmt+1)^0,c
   717  0011AE  ECDA  F00A         	call	_printf	;wreg free
   718                           
   719                           ;main.c: 95:             }
   720  0011B2  EFE1  F008         	goto	l1557
   721  0011B6                     l1555:
   722                           
   723                           ;main.c: 97:             {;main.c: 98:                 printf("Modtog NACK fra slaven\r\
      +                          n");
   724  0011B6  0E01               	movlw	low STR_2
   725  0011B8  6E1E               	movwf	printf@fmt^0,c
   726  0011BA  0E10               	movlw	high STR_2
   727  0011BC  6E1F               	movwf	(printf@fmt+1)^0,c
   728  0011BE  ECDA  F00A         	call	_printf	;wreg free
   729  0011C2                     l1557:
   730                           
   731                           ;main.c: 100:         }
   732  0011C2  2A29               	incf	i2c_write@i^0,f,c
   733  0011C4                     l1559:
   734  0011C4  5026               	movf	i2c_write@length^0,w,c
   735  0011C6  5C29               	subwf	i2c_write@i^0,w,c
   736  0011C8  A0D8               	btfss	status,0,c
   737  0011CA  EFE9  F008         	goto	u711
   738  0011CE  EFEB  F008         	goto	u710
   739  0011D2                     u711:
   740  0011D2  EFBD  F008         	goto	l1551
   741  0011D6                     u710:
   742  0011D6                     
   743                           ;main.c: 103:         SSP1CON2bits.PEN = 1;
   744  0011D6  84C5               	bsf	197,2,c	;volatile
   745  0011D8                     l298:
   746  0011D8  B4C5               	btfsc	197,2,c	;volatile
   747  0011DA  EFF1  F008         	goto	u721
   748  0011DE  EFF3  F008         	goto	u720
   749  0011E2                     u721:
   750  0011E2  EFEC  F008         	goto	l298
   751  0011E6                     u720:
   752  0011E6  EFFB  F008         	goto	l302
   753  0011EA                     l1561:
   754                           
   755                           ;main.c: 107:     {;main.c: 109:         printf("Slaven svarede ikke\r\n");
   756  0011EA  0E32               	movlw	low STR_3
   757  0011EC  6E1E               	movwf	printf@fmt^0,c
   758  0011EE  0E10               	movlw	high STR_3
   759  0011F0  6E1F               	movwf	(printf@fmt+1)^0,c
   760  0011F2  ECDA  F00A         	call	_printf	;wreg free
   761  0011F6                     l302:
   762  0011F6  0012               	return		;funcret
   763  0011F8                     __end_of_i2c_write:
   764                           	opt callstack 0
   765                           
   766 ;; *************** function _printf *****************
   767 ;; Defined at:
   768 ;;		line 5 in file "C:\Program Files (x86)\Microchip\xc8\v2.10\pic\sources\c99\common\printf.c"
   769 ;; Parameters:    Size  Location     Type
   770 ;;  fmt             2   29[COMRAM] PTR const unsigned char 
   771 ;;		 -> STR_3(22), STR_2(25), STR_1(24), 
   772 ;; Auto vars:     Size  Location     Type
   773 ;;  ap              2   33[COMRAM] PTR void [1]
   774 ;;		 -> ?_printf(2), 
   775 ;;  ret             2    0        int 
   776 ;; Return value:  Size  Location     Type
   777 ;;                  2   29[COMRAM] int 
   778 ;; Registers used:
   779 ;;		wreg, fsr1l, fsr1h, fsr2l, fsr2h, status,2, status,0, tblptrl, tblptrh, tblptru, cstack
   780 ;; Tracked objects:
   781 ;;		On entry : 0/0
   782 ;;		On exit  : 0/0
   783 ;;		Unchanged: 0/0
   784 ;; Data sizes:     COMRAM   BANK0   BANK1   BANK2   BANK3   BANK4   BANK5   BANK6   BANK7   BANK8   BANK9  BANK10  BANK1
      +1  BANK12  BANK13  BANK14  BANK15
   785 ;;      Params:         2       0       0       0       0       0       0       0       0       0       0       0       
      +0       0       0       0       0
   786 ;;      Locals:         4       0       0       0       0       0       0       0       0       0       0       0       
      +0       0       0       0       0
   787 ;;      Temps:          0       0       0       0       0       0       0       0       0       0       0       0       
      +0       0       0       0       0
   788 ;;      Totals:         6       0       0       0       0       0       0       0       0       0       0       0       
      +0       0       0       0       0
   789 ;;Total ram usage:        6 bytes
   790 ;; Hardware stack levels used:    1
   791 ;; Hardware stack levels required when called:    9
   792 ;; This function calls:
   793 ;;		_vfprintf
   794 ;; This function is called by:
   795 ;;		_i2c_write
   796 ;; This function uses a non-reentrant model
   797 ;;
   798                           
   799                           	psect	text2
   800  0015B4                     __ptext2:
   801                           	opt callstack 0
   802  0015B4                     _printf:
   803                           	opt callstack 20
   804  0015B4  0E20               	movlw	low (?_printf+2)
   805  0015B6  6E22               	movwf	printf@ap^0,c
   806  0015B8  0E00               	movlw	high (?_printf+2)
   807  0015BA  6E23               	movwf	(printf@ap+1)^0,c
   808  0015BC  0E00               	movlw	0
   809  0015BE  6E16               	movwf	vfprintf@fp^0,c
   810  0015C0  0E00               	movlw	0
   811  0015C2  6E17               	movwf	(vfprintf@fp+1)^0,c
   812  0015C4  C01E  F018         	movff	printf@fmt,vfprintf@fmt
   813  0015C8  C01F  F019         	movff	printf@fmt+1,vfprintf@fmt+1
   814  0015CC  0E22               	movlw	low printf@ap
   815  0015CE  6E1A               	movwf	vfprintf@ap^0,c
   816  0015D0  0E00               	movlw	high printf@ap
   817  0015D2  6E1B               	movwf	(vfprintf@ap+1)^0,c
   818  0015D4  EC0E  F00A         	call	_vfprintf	;wreg free
   819  0015D8  0012               	return		;funcret
   820  0015DA                     __end_of_printf:
   821                           	opt callstack 0
   822                           
   823 ;; *************** function _vfprintf *****************
   824 ;; Defined at:
   825 ;;		line 1368 in file "C:\Program Files (x86)\Microchip\xc8\v2.10\pic\sources\c99\common\doprnt.c"
   826 ;; Parameters:    Size  Location     Type
   827 ;;  fp              2   21[COMRAM] PTR struct _IO_FILE
   828 ;;		 -> NULL(0), 
   829 ;;  fmt             2   23[COMRAM] PTR const unsigned char 
   830 ;;		 -> STR_3(22), STR_2(25), STR_1(24), 
   831 ;;  ap              2   25[COMRAM] PTR PTR void 
   832 ;;		 -> printf@ap(2), 
   833 ;; Auto vars:     Size  Location     Type
   834 ;;  cfmt            2   27[COMRAM] PTR unsigned char 
   835 ;;		 -> STR_3(22), STR_2(25), STR_1(24), 
   836 ;; Return value:  Size  Location     Type
   837 ;;                  2   21[COMRAM] int 
   838 ;; Registers used:
   839 ;;		wreg, fsr1l, fsr1h, fsr2l, fsr2h, status,2, status,0, tblptrl, tblptrh, tblptru, cstack
   840 ;; Tracked objects:
   841 ;;		On entry : 0/0
   842 ;;		On exit  : 0/0
   843 ;;		Unchanged: 0/0
   844 ;; Data sizes:     COMRAM   BANK0   BANK1   BANK2   BANK3   BANK4   BANK5   BANK6   BANK7   BANK8   BANK9  BANK10  BANK1
      +1  BANK12  BANK13  BANK14  BANK15
   845 ;;      Params:         6       0       0       0       0       0       0       0       0       0       0       0       
      +0       0       0       0       0
   846 ;;      Locals:         2       0       0       0       0       0       0       0       0       0       0       0       
      +0       0       0       0       0
   847 ;;      Temps:          0       0       0       0       0       0       0       0       0       0       0       0       
      +0       0       0       0       0
   848 ;;      Totals:         8       0       0       0       0       0       0       0       0       0       0       0       
      +0       0       0       0       0
   849 ;;Total ram usage:        8 bytes
   850 ;; Hardware stack levels used:    1
   851 ;; Hardware stack levels required when called:    8
   852 ;; This function calls:
   853 ;;		_vfpfcnvrt
   854 ;; This function is called by:
   855 ;;		_printf
   856 ;; This function uses a non-reentrant model
   857 ;;
   858                           
   859                           	psect	text3
   860  00141C                     __ptext3:
   861                           	opt callstack 0
   862  00141C                     _vfprintf:
   863                           	opt callstack 20
   864  00141C                     
   865                           ;C:\Program Files (x86)\Microchip\xc8\v2.10\pic\sources\c99\common\doprnt.c: 1368: int v
      +                          fprintf(FILE *fp, const char *fmt, va_list ap);C:\Program Files (x86)\Microchip\xc8\v2.1
      +                          0\pic\sources\c99\common\doprnt.c: 1369: {;C:\Program Files (x86)\Microchip\xc8\v2.10\pi
      +                          c\sources\c99\common\doprnt.c: 1371:     char *cfmt;;C:\Program Files (x86)\Microchip\xc
      +                          8\v2.10\pic\sources\c99\common\doprnt.c: 1373:     cfmt = (char *)fmt;
   866  00141C  C018  F01C         	movff	vfprintf@fmt,vfprintf@cfmt
   867  001420  C019  F01D         	movff	vfprintf@fmt+1,vfprintf@cfmt+1
   868  001424                     
   869                           ;C:\Program Files (x86)\Microchip\xc8\v2.10\pic\sources\c99\common\doprnt.c: 1374:     n
      +                          out = 0;
   870  001424  0E00               	movlw	0
   871  001426  6E2F               	movwf	(_nout+1)^0,c
   872  001428  0E00               	movlw	0
   873  00142A  6E2E               	movwf	_nout^0,c
   874                           
   875                           ;C:\Program Files (x86)\Microchip\xc8\v2.10\pic\sources\c99\common\doprnt.c: 1375:     w
      +                          hile (*cfmt) {
   876  00142C  EF2A  F00A         	goto	l1447
   877  001430                     l1445:
   878                           
   879                           ;C:\Program Files (x86)\Microchip\xc8\v2.10\pic\sources\c99\common\doprnt.c: 1376:      
      +                             nout += vfpfcnvrt(fp, &cfmt, ap);
   880  001430  C016  F010         	movff	vfprintf@fp,vfpfcnvrt@fp
   881  001434  C017  F011         	movff	vfprintf@fp+1,vfpfcnvrt@fp+1
   882  001438  0E1C               	movlw	low vfprintf@cfmt
   883  00143A  6E12               	movwf	vfpfcnvrt@fmt^0,c
   884  00143C  0E00               	movlw	high vfprintf@cfmt
   885  00143E  6E13               	movwf	(vfpfcnvrt@fmt+1)^0,c
   886  001440  C01A  F014         	movff	vfprintf@ap,vfpfcnvrt@ap
   887  001444  C01B  F015         	movff	vfprintf@ap+1,vfpfcnvrt@ap+1
   888  001448  EC25  F008         	call	_vfpfcnvrt	;wreg free
   889  00144C  5010               	movf	?_vfpfcnvrt^0,w,c
   890  00144E  262E               	addwf	_nout^0,f,c
   891  001450  5011               	movf	(?_vfpfcnvrt+1)^0,w,c
   892  001452  222F               	addwfc	(_nout+1)^0,f,c
   893  001454                     l1447:
   894                           
   895                           ;C:\Program Files (x86)\Microchip\xc8\v2.10\pic\sources\c99\common\doprnt.c: 1375:     w
      +                          hile (*cfmt) {
   896  001454  C01C  FFF6         	movff	vfprintf@cfmt,tblptrl
   897  001458  C01D  FFF7         	movff	vfprintf@cfmt+1,tblptrh
   898  00145C                     	if	1	;Program memory is < 0x10000, tblptru is always zero
   899  00145C  6AF8               	clrf	tblptru,c
   900  00145E                     	endif
   901  00145E                     	if	0	;tblptru may be non-zero
   902  00145E                     	endif
   903  00145E  0008               	tblrd		*
   904  001460  50F5               	movf	tablat,w,c
   905  001462  0900               	iorlw	0
   906  001464  A4D8               	btfss	status,2,c
   907  001466  EF37  F00A         	goto	u551
   908  00146A  EF39  F00A         	goto	u550
   909  00146E                     u551:
   910  00146E  EF18  F00A         	goto	l1445
   911  001472                     u550:
   912  001472                     
   913                           ;C:\Program Files (x86)\Microchip\xc8\v2.10\pic\sources\c99\common\doprnt.c: 1378:     r
      +                          eturn nout;
   914  001472  C02E  F016         	movff	_nout,?_vfprintf
   915  001476  C02F  F017         	movff	_nout+1,?_vfprintf+1
   916  00147A  0012               	return		;funcret
   917  00147C                     __end_of_vfprintf:
   918                           	opt callstack 0
   919                           
   920 ;; *************** function _vfpfcnvrt *****************
   921 ;; Defined at:
   922 ;;		line 670 in file "C:\Program Files (x86)\Microchip\xc8\v2.10\pic\sources\c99\common\doprnt.c"
   923 ;; Parameters:    Size  Location     Type
   924 ;;  fp              2   15[COMRAM] PTR struct _IO_FILE
   925 ;;		 -> NULL(0), 
   926 ;;  fmt             2   17[COMRAM] PTR PTR unsigned char 
   927 ;;		 -> vfprintf@cfmt(2), 
   928 ;;  ap              2   19[COMRAM] PTR PTR void 
   929 ;;		 -> printf@ap(2), 
   930 ;; Auto vars:     Size  Location     Type
   931 ;;  llu             8    0        unsigned long long 
   932 ;;  ll              8    0        long long 
   933 ;;  f               4    0        long long 
   934 ;;  vp              3    0        PTR void 
   935 ;;  ct              3    0        unsigned char [3]
   936 ;;  cp              3    0        PTR unsigned char 
   937 ;;  i               2    0        int 
   938 ;;  done            2    0        int 
   939 ;;  c               1    0        unsigned char 
   940 ;; Return value:  Size  Location     Type
   941 ;;                  2   15[COMRAM] int 
   942 ;; Registers used:
   943 ;;		wreg, fsr1l, fsr1h, fsr2l, fsr2h, status,2, status,0, tblptrl, tblptrh, tblptru, cstack
   944 ;; Tracked objects:
   945 ;;		On entry : 0/0
   946 ;;		On exit  : 0/0
   947 ;;		Unchanged: 0/0
   948 ;; Data sizes:     COMRAM   BANK0   BANK1   BANK2   BANK3   BANK4   BANK5   BANK6   BANK7   BANK8   BANK9  BANK10  BANK1
      +1  BANK12  BANK13  BANK14  BANK15
   949 ;;      Params:         6       0       0       0       0       0       0       0       0       0       0       0       
      +0       0       0       0       0
   950 ;;      Locals:         0       0       0       0       0       0       0       0       0       0       0       0       
      +0       0       0       0       0
   951 ;;      Temps:          0       0       0       0       0       0       0       0       0       0       0       0       
      +0       0       0       0       0
   952 ;;      Totals:         6       0       0       0       0       0       0       0       0       0       0       0       
      +0       0       0       0       0
   953 ;;Total ram usage:        6 bytes
   954 ;; Hardware stack levels used:    1
   955 ;; Hardware stack levels required when called:    7
   956 ;; This function calls:
   957 ;;		_fputc
   958 ;; This function is called by:
   959 ;;		_vfprintf
   960 ;; This function uses a non-reentrant model
   961 ;;
   962                           
   963                           	psect	text4
   964  00104A                     __ptext4:
   965                           	opt callstack 0
   966  00104A                     _vfpfcnvrt:
   967                           	opt callstack 20
   968  00104A                     
   969                           ;C:\Program Files (x86)\Microchip\xc8\v2.10\pic\sources\c99\common\doprnt.c: 670: static
      +                           int vfpfcnvrt(FILE *fp, char *fmt[], va_list ap);C:\Program Files (x86)\Microchip\xc8\v
      +                          2.10\pic\sources\c99\common\doprnt.c: 671: {;C:\Program Files (x86)\Microchip\xc8\v2.10\
      +                          pic\sources\c99\common\doprnt.c: 672:     char c, *cp, ct[3];;C:\Program Files (x86)\Mic
      +                          rochip\xc8\v2.10\pic\sources\c99\common\doprnt.c: 673:     int done, i;;C:\Program Files
      +                           (x86)\Microchip\xc8\v2.10\pic\sources\c99\common\doprnt.c: 674:     long long ll;
   970  00104A  C012  FFD9         	movff	vfpfcnvrt@fmt,fsr2l
   971  00104E  C013  FFDA         	movff	vfpfcnvrt@fmt+1,fsr2h
   972  001052  CFDE FFF6          	movff	postinc2,tblptrl
   973  001056  CFDD FFF7          	movff	postdec2,tblptrh
   974  00105A                     	if	1	;Program memory is < 0x10000, tblptru is always zero
   975  00105A  6AF8               	clrf	tblptru,c
   976  00105C                     	endif
   977  00105C                     	if	0	;tblptru may be non-zero
   978  00105C                     	endif
   979  00105C  0008               	tblrd		*
   980  00105E  50F5               	movf	tablat,w,c
   981  001060  0A25               	xorlw	37
   982  001062  A4D8               	btfss	status,2,c
   983  001064  EF36  F008         	goto	u521
   984  001068  EF38  F008         	goto	u520
   985  00106C                     u521:
   986  00106C  EF80  F008         	goto	l1413
   987  001070                     u520:
   988  001070                     
   989                           ;C:\Program Files (x86)\Microchip\xc8\v2.10\pic\sources\c99\common\doprnt.c: 681:       
      +                            ++*fmt;
   990  001070  C012  FFD9         	movff	vfpfcnvrt@fmt,fsr2l
   991  001074  C013  FFDA         	movff	vfpfcnvrt@fmt+1,fsr2h
   992  001078  2ADE               	incf	postinc2,f,c
   993  00107A  0E00               	movlw	0
   994  00107C  22DD               	addwfc	postdec2,f,c
   995  00107E                     
   996                           ;C:\Program Files (x86)\Microchip\xc8\v2.10\pic\sources\c99\common\doprnt.c: 683:       
      +                            flags = width = 0;
   997  00107E  0E00               	movlw	0
   998  001080  6E31               	movwf	(_width+1)^0,c
   999  001082  0E00               	movlw	0
  1000  001084  6E30               	movwf	_width^0,c
  1001  001086  C030  F034         	movff	_width,_flags
  1002  00108A  C031  F035         	movff	_width+1,_flags+1
  1003  00108E                     
  1004                           ;C:\Program Files (x86)\Microchip\xc8\v2.10\pic\sources\c99\common\doprnt.c: 684:       
      +                            prec = -1;
  1005  00108E  6832               	setf	_prec^0,c
  1006  001090  6833               	setf	(_prec+1)^0,c
  1007  001092                     
  1008                           ;C:\Program Files (x86)\Microchip\xc8\v2.10\pic\sources\c99\common\doprnt.c: 1350:      
      +                             if ((*fmt)[0] == '%') {
  1009  001092  C012  FFD9         	movff	vfpfcnvrt@fmt,fsr2l
  1010  001096  C013  FFDA         	movff	vfpfcnvrt@fmt+1,fsr2h
  1011  00109A  CFDE FFF6          	movff	postinc2,tblptrl
  1012  00109E  CFDD FFF7          	movff	postdec2,tblptrh
  1013  0010A2                     	if	1	;Program memory is < 0x10000, tblptru is always zero
  1014  0010A2  6AF8               	clrf	tblptru,c
  1015  0010A4                     	endif
  1016  0010A4                     	if	0	;tblptru may be non-zero
  1017  0010A4                     	endif
  1018  0010A4  0008               	tblrd		*
  1019  0010A6  50F5               	movf	tablat,w,c
  1020  0010A8  0A25               	xorlw	37
  1021  0010AA  A4D8               	btfss	status,2,c
  1022  0010AC  EF5A  F008         	goto	u531
  1023  0010B0  EF5C  F008         	goto	u530
  1024  0010B4                     u531:
  1025  0010B4  EF73  F008         	goto	l1407
  1026  0010B8                     u530:
  1027  0010B8                     
  1028                           ;C:\Program Files (x86)\Microchip\xc8\v2.10\pic\sources\c99\common\doprnt.c: 1351:      
      +                                 ++*fmt;
  1029  0010B8  C012  FFD9         	movff	vfpfcnvrt@fmt,fsr2l
  1030  0010BC  C013  FFDA         	movff	vfpfcnvrt@fmt+1,fsr2h
  1031  0010C0  2ADE               	incf	postinc2,f,c
  1032  0010C2  0E00               	movlw	0
  1033  0010C4  22DD               	addwfc	postdec2,f,c
  1034  0010C6                     
  1035                           ;C:\Program Files (x86)\Microchip\xc8\v2.10\pic\sources\c99\common\doprnt.c: 1352:      
      +                                 fputc((int)'%', fp);
  1036  0010C6  0E00               	movlw	0
  1037  0010C8  6E08               	movwf	(fputc@c+1)^0,c
  1038  0010CA  0E25               	movlw	37
  1039  0010CC  6E07               	movwf	fputc@c^0,c
  1040  0010CE  C010  F009         	movff	vfpfcnvrt@fp,fputc@fp
  1041  0010D2  C011  F00A         	movff	vfpfcnvrt@fp+1,fputc@fp+1
  1042  0010D6  EC59  F009         	call	_fputc	;wreg free
  1043  0010DA                     l1403:
  1044                           
  1045                           ;C:\Program Files (x86)\Microchip\xc8\v2.10\pic\sources\c99\common\doprnt.c: 1353:      
      +                                 return 1;
  1046  0010DA  0E00               	movlw	0
  1047  0010DC  6E11               	movwf	(?_vfpfcnvrt+1)^0,c
  1048  0010DE  0E01               	movlw	1
  1049  0010E0  6E10               	movwf	?_vfpfcnvrt^0,c
  1050  0010E2  EF9C  F008         	goto	l360
  1051  0010E6                     l1407:
  1052                           
  1053                           ;C:\Program Files (x86)\Microchip\xc8\v2.10\pic\sources\c99\common\doprnt.c: 1357:      
      +                             ++*fmt;
  1054  0010E6  C012  FFD9         	movff	vfpfcnvrt@fmt,fsr2l
  1055  0010EA  C013  FFDA         	movff	vfpfcnvrt@fmt+1,fsr2h
  1056  0010EE  2ADE               	incf	postinc2,f,c
  1057  0010F0  0E00               	movlw	0
  1058  0010F2  22DD               	addwfc	postdec2,f,c
  1059  0010F4                     
  1060                           ;C:\Program Files (x86)\Microchip\xc8\v2.10\pic\sources\c99\common\doprnt.c: 1358:      
      +                             return 0;
  1061  0010F4  0E00               	movlw	0
  1062  0010F6  6E11               	movwf	(?_vfpfcnvrt+1)^0,c
  1063  0010F8  0E00               	movlw	0
  1064  0010FA  6E10               	movwf	?_vfpfcnvrt^0,c
  1065  0010FC  EF9C  F008         	goto	l360
  1066  001100                     l1413:
  1067                           
  1068                           ;C:\Program Files (x86)\Microchip\xc8\v2.10\pic\sources\c99\common\doprnt.c: 1362:     f
      +                          putc((int)(*fmt)[0], fp);
  1069  001100  C012  FFD9         	movff	vfpfcnvrt@fmt,fsr2l
  1070  001104  C013  FFDA         	movff	vfpfcnvrt@fmt+1,fsr2h
  1071  001108  CFDE FFF6          	movff	postinc2,tblptrl
  1072  00110C  CFDD FFF7          	movff	postdec2,tblptrh
  1073  001110                     	if	1	;Program memory is < 0x10000, tblptru is always zero
  1074  001110  6AF8               	clrf	tblptru,c
  1075  001112                     	endif
  1076  001112                     	if	0	;tblptru may be non-zero
  1077  001112                     	endif
  1078  001112  0008               	tblrd		*
  1079  001114  50F5               	movf	tablat,w,c
  1080  001116  6E07               	movwf	fputc@c^0,c
  1081  001118  6A08               	clrf	(fputc@c+1)^0,c
  1082  00111A  C010  F009         	movff	vfpfcnvrt@fp,fputc@fp
  1083  00111E  C011  F00A         	movff	vfpfcnvrt@fp+1,fputc@fp+1
  1084  001122  EC59  F009         	call	_fputc	;wreg free
  1085  001126                     
  1086                           ;C:\Program Files (x86)\Microchip\xc8\v2.10\pic\sources\c99\common\doprnt.c: 1363:     +
      +                          +*fmt;
  1087  001126  C012  FFD9         	movff	vfpfcnvrt@fmt,fsr2l
  1088  00112A  C013  FFDA         	movff	vfpfcnvrt@fmt+1,fsr2h
  1089  00112E  2ADE               	incf	postinc2,f,c
  1090  001130  0E00               	movlw	0
  1091  001132  22DD               	addwfc	postdec2,f,c
  1092  001134  EF6D  F008         	goto	l1403
  1093  001138                     l360:
  1094  001138  0012               	return		;funcret
  1095  00113A                     __end_of_vfpfcnvrt:
  1096                           	opt callstack 0
  1097                           
  1098 ;; *************** function _fputc *****************
  1099 ;; Defined at:
  1100 ;;		line 8 in file "C:\Program Files (x86)\Microchip\xc8\v2.10\pic\sources\c99\common\nf_fputc.c"
  1101 ;; Parameters:    Size  Location     Type
  1102 ;;  c               2    6[COMRAM] int 
  1103 ;;  fp              2    8[COMRAM] PTR struct _IO_FILE
  1104 ;;		 -> NULL(0), 
  1105 ;; Auto vars:     Size  Location     Type
  1106 ;;		None
  1107 ;; Return value:  Size  Location     Type
  1108 ;;                  2    6[COMRAM] int 
  1109 ;; Registers used:
  1110 ;;		wreg, fsr1l, fsr1h, fsr2l, fsr2h, status,2, status,0, cstack
  1111 ;; Tracked objects:
  1112 ;;		On entry : 0/0
  1113 ;;		On exit  : 0/0
  1114 ;;		Unchanged: 0/0
  1115 ;; Data sizes:     COMRAM   BANK0   BANK1   BANK2   BANK3   BANK4   BANK5   BANK6   BANK7   BANK8   BANK9  BANK10  BANK1
      +1  BANK12  BANK13  BANK14  BANK15
  1116 ;;      Params:         4       0       0       0       0       0       0       0       0       0       0       0       
      +0       0       0       0       0
  1117 ;;      Locals:         0       0       0       0       0       0       0       0       0       0       0       0       
      +0       0       0       0       0
  1118 ;;      Temps:          5       0       0       0       0       0       0       0       0       0       0       0       
      +0       0       0       0       0
  1119 ;;      Totals:         9       0       0       0       0       0       0       0       0       0       0       0       
      +0       0       0       0       0
  1120 ;;Total ram usage:        9 bytes
  1121 ;; Hardware stack levels used:    1
  1122 ;; Hardware stack levels required when called:    6
  1123 ;; This function calls:
  1124 ;;		_putch
  1125 ;; This function is called by:
  1126 ;;		_vfpfcnvrt
  1127 ;; This function uses a non-reentrant model
  1128 ;;
  1129                           
  1130                           	psect	text5
  1131  0012B2                     __ptext5:
  1132                           	opt callstack 0
  1133  0012B2                     _fputc:
  1134                           	opt callstack 20
  1135  0012B2  5009               	movf	fputc@fp^0,w,c
  1136  0012B4  100A               	iorwf	(fputc@fp+1)^0,w,c
  1137  0012B6  B4D8               	btfsc	status,2,c
  1138  0012B8  EF60  F009         	goto	u481
  1139  0012BC  EF62  F009         	goto	u480
  1140  0012C0                     u481:
  1141  0012C0  EF6B  F009         	goto	l1379
  1142  0012C4                     u480:
  1143  0012C4  5009               	movf	fputc@fp^0,w,c
  1144  0012C6  100A               	iorwf	(fputc@fp+1)^0,w,c
  1145  0012C8  A4D8               	btfss	status,2,c
  1146  0012CA  EF69  F009         	goto	u491
  1147  0012CE  EF6B  F009         	goto	u490
  1148  0012D2                     u491:
  1149  0012D2  EF70  F009         	goto	l1381
  1150  0012D6                     u490:
  1151  0012D6                     l1379:
  1152  0012D6  5007               	movf	fputc@c^0,w,c
  1153  0012D8  EC1A  F00B         	call	_putch
  1154  0012DC  EFA3  F009         	goto	l1052
  1155  0012E0                     l1381:
  1156  0012E0  EE20 F004          	lfsr	2,4
  1157  0012E4  5009               	movf	fputc@fp^0,w,c
  1158  0012E6  26D9               	addwf	fsr2l,f,c
  1159  0012E8  500A               	movf	(fputc@fp+1)^0,w,c
  1160  0012EA  22DA               	addwfc	fsr2h,f,c
  1161  0012EC  50DE               	movf	postinc2,w,c
  1162  0012EE  10DE               	iorwf	postinc2,w,c
  1163  0012F0  B4D8               	btfsc	status,2,c
  1164  0012F2  EF7D  F009         	goto	u501
  1165  0012F6  EF7F  F009         	goto	u500
  1166  0012FA                     u501:
  1167  0012FA  EF9A  F009         	goto	l1385
  1168  0012FE                     u500:
  1169  0012FE  EE20 F004          	lfsr	2,4
  1170  001302  5009               	movf	fputc@fp^0,w,c
  1171  001304  26D9               	addwf	fsr2l,f,c
  1172  001306  500A               	movf	(fputc@fp+1)^0,w,c
  1173  001308  22DA               	addwfc	fsr2h,f,c
  1174  00130A  EE10 F002          	lfsr	1,2
  1175  00130E  5009               	movf	fputc@fp^0,w,c
  1176  001310  26E1               	addwf	fsr1l,f,c
  1177  001312  500A               	movf	(fputc@fp+1)^0,w,c
  1178  001314  22E2               	addwfc	fsr1h,f,c
  1179  001316  50DE               	movf	postinc2,w,c
  1180  001318  5CE6               	subwf	postinc1,w,c
  1181  00131A  50E6               	movf	postinc1,w,c
  1182  00131C  0A80               	xorlw	128
  1183  00131E  6E0F               	movwf	(??_fputc+4)^0,c
  1184  001320  50DE               	movf	postinc2,w,c
  1185  001322  0A80               	xorlw	128
  1186  001324  580F               	subwfb	(??_fputc+4)^0,w,c
  1187  001326  B0D8               	btfsc	status,0,c
  1188  001328  EF98  F009         	goto	u511
  1189  00132C  EF9A  F009         	goto	u510
  1190  001330                     u511:
  1191  001330  EFA3  F009         	goto	l1052
  1192  001334                     u510:
  1193  001334                     l1385:
  1194  001334  EE20 F002          	lfsr	2,2
  1195  001338  5009               	movf	fputc@fp^0,w,c
  1196  00133A  26D9               	addwf	fsr2l,f,c
  1197  00133C  500A               	movf	(fputc@fp+1)^0,w,c
  1198  00133E  22DA               	addwfc	fsr2h,f,c
  1199  001340  2ADE               	incf	postinc2,f,c
  1200  001342  0E00               	movlw	0
  1201  001344  22DD               	addwfc	postdec2,f,c
  1202  001346                     l1052:
  1203  001346  0012               	return		;funcret
  1204  001348                     __end_of_fputc:
  1205                           	opt callstack 0
  1206                           
  1207 ;; *************** function _putch *****************
  1208 ;; Defined at:
  1209 ;;		line 201 in file "mcc_generated_files/eusart1.c"
  1210 ;; Parameters:    Size  Location     Type
  1211 ;;  txData          1    wreg     unsigned char 
  1212 ;; Auto vars:     Size  Location     Type
  1213 ;;  txData          1    5[COMRAM] unsigned char 
  1214 ;; Return value:  Size  Location     Type
  1215 ;;                  1    wreg      void 
  1216 ;; Registers used:
  1217 ;;		wreg, fsr2l, fsr2h, status,2, status,0, cstack
  1218 ;; Tracked objects:
  1219 ;;		On entry : 0/0
  1220 ;;		On exit  : 0/0
  1221 ;;		Unchanged: 0/0
  1222 ;; Data sizes:     COMRAM   BANK0   BANK1   BANK2   BANK3   BANK4   BANK5   BANK6   BANK7   BANK8   BANK9  BANK10  BANK1
      +1  BANK12  BANK13  BANK14  BANK15
  1223 ;;      Params:         0       0       0       0       0       0       0       0       0       0       0       0       
      +0       0       0       0       0
  1224 ;;      Locals:         1       0       0       0       0       0       0       0       0       0       0       0       
      +0       0       0       0       0
  1225 ;;      Temps:          0       0       0       0       0       0       0       0       0       0       0       0       
      +0       0       0       0       0
  1226 ;;      Totals:         1       0       0       0       0       0       0       0       0       0       0       0       
      +0       0       0       0       0
  1227 ;;Total ram usage:        1 bytes
  1228 ;; Hardware stack levels used:    1
  1229 ;; Hardware stack levels required when called:    5
  1230 ;; This function calls:
  1231 ;;		_EUSART1_Write
  1232 ;; This function is called by:
  1233 ;;		_fputc
  1234 ;; This function uses a non-reentrant model
  1235 ;;
  1236                           
  1237                           	psect	text6
  1238  001634                     __ptext6:
  1239                           	opt callstack 0
  1240  001634                     _putch:
  1241                           	opt callstack 20
  1242                           
  1243                           ;incstack = 0
  1244                           ;putch@txData stored from wreg
  1245  001634  6E06               	movwf	putch@txData^0,c
  1246  001636                     
  1247                           ;mcc_generated_files/eusart1.c: 201: void putch(char txData);mcc_generated_files/eusart1
      +                          .c: 202: {;mcc_generated_files/eusart1.c: 203:     EUSART1_Write(txData);
  1248  001636  5006               	movf	putch@txData^0,w,c
  1249  001638  EC3E  F00A         	call	_EUSART1_Write
  1250  00163C  0012               	return		;funcret
  1251  00163E                     __end_of_putch:
  1252                           	opt callstack 0
  1253                           
  1254 ;; *************** function _EUSART1_Write *****************
  1255 ;; Defined at:
  1256 ;;		line 173 in file "mcc_generated_files/eusart1.c"
  1257 ;; Parameters:    Size  Location     Type
  1258 ;;  txData          1    wreg     unsigned char 
  1259 ;; Auto vars:     Size  Location     Type
  1260 ;;  txData          1    4[COMRAM] unsigned char 
  1261 ;; Return value:  Size  Location     Type
  1262 ;;                  1    wreg      void 
  1263 ;; Registers used:
  1264 ;;		wreg, fsr2l, fsr2h, status,2, status,0
  1265 ;; Tracked objects:
  1266 ;;		On entry : 0/0
  1267 ;;		On exit  : 0/0
  1268 ;;		Unchanged: 0/0
  1269 ;; Data sizes:     COMRAM   BANK0   BANK1   BANK2   BANK3   BANK4   BANK5   BANK6   BANK7   BANK8   BANK9  BANK10  BANK1
      +1  BANK12  BANK13  BANK14  BANK15
  1270 ;;      Params:         0       0       0       0       0       0       0       0       0       0       0       0       
      +0       0       0       0       0
  1271 ;;      Locals:         1       0       0       0       0       0       0       0       0       0       0       0       
      +0       0       0       0       0
  1272 ;;      Temps:          0       0       0       0       0       0       0       0       0       0       0       0       
      +0       0       0       0       0
  1273 ;;      Totals:         1       0       0       0       0       0       0       0       0       0       0       0       
      +0       0       0       0       0
  1274 ;;Total ram usage:        1 bytes
  1275 ;; Hardware stack levels used:    1
  1276 ;; Hardware stack levels required when called:    4
  1277 ;; This function calls:
  1278 ;;		Nothing
  1279 ;; This function is called by:
  1280 ;;		_putch
  1281 ;; This function uses a non-reentrant model
  1282 ;;
  1283                           
  1284                           	psect	text7
  1285  00147C                     __ptext7:
  1286                           	opt callstack 0
  1287  00147C                     _EUSART1_Write:
  1288                           	opt callstack 20
  1289                           
  1290                           ;incstack = 0
  1291                           ;EUSART1_Write@txData stored from wreg
  1292  00147C  6E05               	movwf	EUSART1_Write@txData^0,c
  1293  00147E                     l1357:
  1294                           
  1295                           ;mcc_generated_files/eusart1.c: 175:     while(0 == eusart1TxBufferRemaining)
  1296  00147E  5044               	movf	_eusart1TxBufferRemaining^0,w,c	;volatile
  1297  001480  B4D8               	btfsc	status,2,c
  1298  001482  EF45  F00A         	goto	u451
  1299  001486  EF47  F00A         	goto	u450
  1300  00148A                     u451:
  1301  00148A  EF3F  F00A         	goto	l1357
  1302  00148E                     u450:
  1303  00148E                     
  1304                           ;mcc_generated_files/eusart1.c: 179:     if(0 == PIE1bits.TX1IE)
  1305  00148E  B89D               	btfsc	157,4,c	;volatile
  1306  001490  EF4C  F00A         	goto	u461
  1307  001494  EF4E  F00A         	goto	u460
  1308  001498                     u461:
  1309  001498  EF52  F00A         	goto	l181
  1310  00149C                     u460:
  1311  00149C                     
  1312                           ;mcc_generated_files/eusart1.c: 180:     {;mcc_generated_files/eusart1.c: 181:         T
      +                          XREG1 = txData;
  1313  00149C  C005  FFAD         	movff	EUSART1_Write@txData,4013	;volatile
  1314                           
  1315                           ;mcc_generated_files/eusart1.c: 182:     }
  1316  0014A0  EF67  F00A         	goto	l1371
  1317  0014A4                     l181:
  1318                           
  1319                           ;mcc_generated_files/eusart1.c: 184:     {;mcc_generated_files/eusart1.c: 185:         P
      +                          IE1bits.TX1IE = 0;
  1320  0014A4  989D               	bcf	157,4,c	;volatile
  1321  0014A6                     
  1322                           ;mcc_generated_files/eusart1.c: 186:         eusart1TxBuffer[eusart1TxHead++] = txData;
  1323  0014A6  0EA0               	movlw	low _eusart1TxBuffer
  1324  0014A8  2446               	addwf	_eusart1TxHead^0,w,c	;volatile
  1325  0014AA  6ED9               	movwf	fsr2l,c
  1326  0014AC  6ADA               	clrf	fsr2h,c
  1327  0014AE  0E00               	movlw	high _eusart1TxBuffer
  1328  0014B0  22DA               	addwfc	fsr2h,f,c
  1329  0014B2  C005  FFDF         	movff	EUSART1_Write@txData,indf2
  1330  0014B6  2A46               	incf	_eusart1TxHead^0,f,c	;volatile
  1331  0014B8                     
  1332                           ;mcc_generated_files/eusart1.c: 187:         if(sizeof(eusart1TxBuffer) <= eusart1TxHead
      +                          )
  1333  0014B8  0E3F               	movlw	63
  1334  0014BA  6446               	cpfsgt	_eusart1TxHead^0,c	;volatile
  1335  0014BC  EF62  F00A         	goto	u471
  1336  0014C0  EF64  F00A         	goto	u470
  1337  0014C4                     u471:
  1338  0014C4  EF66  F00A         	goto	l1369
  1339  0014C8                     u470:
  1340  0014C8                     
  1341                           ;mcc_generated_files/eusart1.c: 188:         {;mcc_generated_files/eusart1.c: 189:      
      +                                 eusart1TxHead = 0;
  1342  0014C8  0E00               	movlw	0
  1343  0014CA  6E46               	movwf	_eusart1TxHead^0,c	;volatile
  1344  0014CC                     l1369:
  1345                           
  1346                           ;mcc_generated_files/eusart1.c: 191:         eusart1TxBufferRemaining--;
  1347  0014CC  0644               	decf	_eusart1TxBufferRemaining^0,f,c	;volatile
  1348  0014CE                     l1371:
  1349                           
  1350                           ;mcc_generated_files/eusart1.c: 193:     PIE1bits.TX1IE = 1;
  1351  0014CE  889D               	bsf	157,4,c	;volatile
  1352  0014D0  0012               	return		;funcret
  1353  0014D2                     __end_of_EUSART1_Write:
  1354                           	opt callstack 0
  1355                           
  1356 ;; *************** function _i2c_init *****************
  1357 ;; Defined at:
  1358 ;;		line 57 in file "main.c"
  1359 ;; Parameters:    Size  Location     Type
  1360 ;;		None
  1361 ;; Auto vars:     Size  Location     Type
  1362 ;;		None
  1363 ;; Return value:  Size  Location     Type
  1364 ;;                  1    wreg      void 
  1365 ;; Registers used:
  1366 ;;		wreg, status,2
  1367 ;; Tracked objects:
  1368 ;;		On entry : 0/0
  1369 ;;		On exit  : 0/0
  1370 ;;		Unchanged: 0/0
  1371 ;; Data sizes:     COMRAM   BANK0   BANK1   BANK2   BANK3   BANK4   BANK5   BANK6   BANK7   BANK8   BANK9  BANK10  BANK1
      +1  BANK12  BANK13  BANK14  BANK15
  1372 ;;      Params:         0       0       0       0       0       0       0       0       0       0       0       0       
      +0       0       0       0       0
  1373 ;;      Locals:         0       0       0       0       0       0       0       0       0       0       0       0       
      +0       0       0       0       0
  1374 ;;      Temps:          0       0       0       0       0       0       0       0       0       0       0       0       
      +0       0       0       0       0
  1375 ;;      Totals:         0       0       0       0       0       0       0       0       0       0       0       0       
      +0       0       0       0       0
  1376 ;;Total ram usage:        0 bytes
  1377 ;; Hardware stack levels used:    1
  1378 ;; Hardware stack levels required when called:    4
  1379 ;; This function calls:
  1380 ;;		Nothing
  1381 ;; This function is called by:
  1382 ;;		_main
  1383 ;; This function uses a non-reentrant model
  1384 ;;
  1385                           
  1386                           	psect	text8
  1387  0015F6                     __ptext8:
  1388                           	opt callstack 0
  1389  0015F6                     _i2c_init:
  1390                           	opt callstack 26
  1391  0015F6                     
  1392                           ;main.c: 59:     TRISCbits.RC3 = 1;
  1393  0015F6  8694               	bsf	148,3,c	;volatile
  1394                           
  1395                           ;main.c: 60:     TRISCbits.RC4 = 1;
  1396  0015F8  8894               	bsf	148,4,c	;volatile
  1397                           
  1398                           ;main.c: 62:     ANSELCbits.ANSC3 = 0;
  1399  0015FA  010F               	movlb	15	; () banked
  1400  0015FC  973A               	bcf	58,3,b	;volatile
  1401                           
  1402                           ;main.c: 63:     ANSELCbits.ANSC4 = 0;
  1403  0015FE  993A               	bcf	58,4,b	;volatile
  1404  001600                     
  1405                           ; BSR set to: 15
  1406                           ;main.c: 65:     SSP1ADD = 0x9F;
  1407  001600  0E9F               	movlw	159
  1408  001602  6EC8               	movwf	200,c	;volatile
  1409                           
  1410                           ;main.c: 66:     SSP1CON1 = 0b00101000;
  1411  001604  0E28               	movlw	40
  1412  001606  6EC6               	movwf	198,c	;volatile
  1413                           
  1414                           ;main.c: 67:     SSP1CON2 = 0;
  1415  001608  0E00               	movlw	0
  1416  00160A  6EC5               	movwf	197,c	;volatile
  1417  00160C                     
  1418                           ; BSR set to: 15
  1419  00160C  0012               	return		;funcret
  1420  00160E                     __end_of_i2c_init:
  1421                           	opt callstack 0
  1422                           
  1423 ;; *************** function _SYSTEM_Initialize *****************
  1424 ;; Defined at:
  1425 ;;		line 50 in file "mcc_generated_files/mcc.c"
  1426 ;; Parameters:    Size  Location     Type
  1427 ;;		None
  1428 ;; Auto vars:     Size  Location     Type
  1429 ;;		None
  1430 ;; Return value:  Size  Location     Type
  1431 ;;                  1    wreg      void 
  1432 ;; Registers used:
  1433 ;;		wreg, status,2, status,0, cstack
  1434 ;; Tracked objects:
  1435 ;;		On entry : 0/0
  1436 ;;		On exit  : 0/0
  1437 ;;		Unchanged: 0/0
  1438 ;; Data sizes:     COMRAM   BANK0   BANK1   BANK2   BANK3   BANK4   BANK5   BANK6   BANK7   BANK8   BANK9  BANK10  BANK1
      +1  BANK12  BANK13  BANK14  BANK15
  1439 ;;      Params:         0       0       0       0       0       0       0       0       0       0       0       0       
      +0       0       0       0       0
  1440 ;;      Locals:         0       0       0       0       0       0       0       0       0       0       0       0       
      +0       0       0       0       0
  1441 ;;      Temps:          0       0       0       0       0       0       0       0       0       0       0       0       
      +0       0       0       0       0
  1442 ;;      Totals:         0       0       0       0       0       0       0       0       0       0       0       0       
      +0       0       0       0       0
  1443 ;;Total ram usage:        0 bytes
  1444 ;; Hardware stack levels used:    1
  1445 ;; Hardware stack levels required when called:    6
  1446 ;; This function calls:
  1447 ;;		_EUSART1_Initialize
  1448 ;;		_INTERRUPT_Initialize
  1449 ;;		_OSCILLATOR_Initialize
  1450 ;;		_PIN_MANAGER_Initialize
  1451 ;; This function is called by:
  1452 ;;		_main
  1453 ;; This function uses a non-reentrant model
  1454 ;;
  1455                           
  1456                           	psect	text9
  1457  001622                     __ptext9:
  1458                           	opt callstack 0
  1459  001622                     _SYSTEM_Initialize:
  1460                           	opt callstack 24
  1461  001622                     
  1462                           ;mcc_generated_files/mcc.c: 53:     INTERRUPT_Initialize();
  1463  001622  EC3E  F00B         	call	_INTERRUPT_Initialize	;wreg free
  1464  001626                     
  1465                           ;mcc_generated_files/mcc.c: 54:     PIN_MANAGER_Initialize();
  1466  001626  ECB0  F00A         	call	_PIN_MANAGER_Initialize	;wreg free
  1467  00162A                     
  1468                           ;mcc_generated_files/mcc.c: 55:     OSCILLATOR_Initialize();
  1469  00162A  ECED  F00A         	call	_OSCILLATOR_Initialize	;wreg free
  1470  00162E                     
  1471                           ;mcc_generated_files/mcc.c: 56:     EUSART1_Initialize();
  1472  00162E  ECA4  F009         	call	_EUSART1_Initialize	;wreg free
  1473  001632  0012               	return		;funcret
  1474  001634                     __end_of_SYSTEM_Initialize:
  1475                           	opt callstack 0
  1476                           
  1477 ;; *************** function _PIN_MANAGER_Initialize *****************
  1478 ;; Defined at:
  1479 ;;		line 55 in file "mcc_generated_files/pin_manager.c"
  1480 ;; Parameters:    Size  Location     Type
  1481 ;;		None
  1482 ;; Auto vars:     Size  Location     Type
  1483 ;;		None
  1484 ;; Return value:  Size  Location     Type
  1485 ;;                  1    wreg      void 
  1486 ;; Registers used:
  1487 ;;		wreg, status,2
  1488 ;; Tracked objects:
  1489 ;;		On entry : 0/0
  1490 ;;		On exit  : 0/0
  1491 ;;		Unchanged: 0/0
  1492 ;; Data sizes:     COMRAM   BANK0   BANK1   BANK2   BANK3   BANK4   BANK5   BANK6   BANK7   BANK8   BANK9  BANK10  BANK1
      +1  BANK12  BANK13  BANK14  BANK15
  1493 ;;      Params:         0       0       0       0       0       0       0       0       0       0       0       0       
      +0       0       0       0       0
  1494 ;;      Locals:         0       0       0       0       0       0       0       0       0       0       0       0       
      +0       0       0       0       0
  1495 ;;      Temps:          0       0       0       0       0       0       0       0       0       0       0       0       
      +0       0       0       0       0
  1496 ;;      Totals:         0       0       0       0       0       0       0       0       0       0       0       0       
      +0       0       0       0       0
  1497 ;;Total ram usage:        0 bytes
  1498 ;; Hardware stack levels used:    1
  1499 ;; Hardware stack levels required when called:    4
  1500 ;; This function calls:
  1501 ;;		Nothing
  1502 ;; This function is called by:
  1503 ;;		_SYSTEM_Initialize
  1504 ;; This function uses a non-reentrant model
  1505 ;;
  1506                           
  1507                           	psect	text10
  1508  001560                     __ptext10:
  1509                           	opt callstack 0
  1510  001560                     _PIN_MANAGER_Initialize:
  1511                           	opt callstack 25
  1512  001560                     
  1513                           ;mcc_generated_files/pin_manager.c: 60:     LATA = 0x00;
  1514  001560  0E00               	movlw	0
  1515  001562  6E89               	movwf	137,c	;volatile
  1516                           
  1517                           ;mcc_generated_files/pin_manager.c: 61:     LATB = 0x00;
  1518  001564  0E00               	movlw	0
  1519  001566  6E8A               	movwf	138,c	;volatile
  1520                           
  1521                           ;mcc_generated_files/pin_manager.c: 62:     LATC = 0x00;
  1522  001568  0E00               	movlw	0
  1523  00156A  6E8B               	movwf	139,c	;volatile
  1524  00156C                     
  1525                           ;mcc_generated_files/pin_manager.c: 67:     TRISA = 0xFF;
  1526  00156C  6892               	setf	146,c	;volatile
  1527  00156E                     
  1528                           ;mcc_generated_files/pin_manager.c: 68:     TRISB = 0xFF;
  1529  00156E  6893               	setf	147,c	;volatile
  1530                           
  1531                           ;mcc_generated_files/pin_manager.c: 69:     TRISC = 0xBF;
  1532  001570  0EBF               	movlw	191
  1533  001572  6E94               	movwf	148,c	;volatile
  1534                           
  1535                           ;mcc_generated_files/pin_manager.c: 74:     ANSELC = 0x3C;
  1536  001574  0E3C               	movlw	60
  1537  001576  010F               	movlb	15	; () banked
  1538  001578  6F3A               	movwf	58,b	;volatile
  1539                           
  1540                           ;mcc_generated_files/pin_manager.c: 75:     ANSELB = 0x3F;
  1541  00157A  0E3F               	movlw	63
  1542  00157C  6F39               	movwf	57,b	;volatile
  1543                           
  1544                           ;mcc_generated_files/pin_manager.c: 76:     ANSELA = 0x2F;
  1545  00157E  0E2F               	movlw	47
  1546  001580  6F38               	movwf	56,b	;volatile
  1547                           
  1548                           ;mcc_generated_files/pin_manager.c: 81:     WPUB = 0x00;
  1549  001582  0E00               	movlw	0
  1550  001584  6E61               	movwf	97,c	;volatile
  1551  001586                     
  1552                           ; BSR set to: 15
  1553                           ;mcc_generated_files/pin_manager.c: 82:     INTCON2bits.nRBPU = 1;
  1554  001586  8EF1               	bsf	241,7,c	;volatile
  1555  001588                     
  1556                           ; BSR set to: 15
  1557  001588  0012               	return		;funcret
  1558  00158A                     __end_of_PIN_MANAGER_Initialize:
  1559                           	opt callstack 0
  1560                           
  1561 ;; *************** function _OSCILLATOR_Initialize *****************
  1562 ;; Defined at:
  1563 ;;		line 59 in file "mcc_generated_files/mcc.c"
  1564 ;; Parameters:    Size  Location     Type
  1565 ;;		None
  1566 ;; Auto vars:     Size  Location     Type
  1567 ;;		None
  1568 ;; Return value:  Size  Location     Type
  1569 ;;                  1    wreg      void 
  1570 ;; Registers used:
  1571 ;;		wreg, status,2
  1572 ;; Tracked objects:
  1573 ;;		On entry : 0/0
  1574 ;;		On exit  : 0/0
  1575 ;;		Unchanged: 0/0
  1576 ;; Data sizes:     COMRAM   BANK0   BANK1   BANK2   BANK3   BANK4   BANK5   BANK6   BANK7   BANK8   BANK9  BANK10  BANK1
      +1  BANK12  BANK13  BANK14  BANK15
  1577 ;;      Params:         0       0       0       0       0       0       0       0       0       0       0       0       
      +0       0       0       0       0
  1578 ;;      Locals:         0       0       0       0       0       0       0       0       0       0       0       0       
      +0       0       0       0       0
  1579 ;;      Temps:          0       0       0       0       0       0       0       0       0       0       0       0       
      +0       0       0       0       0
  1580 ;;      Totals:         0       0       0       0       0       0       0       0       0       0       0       0       
      +0       0       0       0       0
  1581 ;;Total ram usage:        0 bytes
  1582 ;; Hardware stack levels used:    1
  1583 ;; Hardware stack levels required when called:    4
  1584 ;; This function calls:
  1585 ;;		Nothing
  1586 ;; This function is called by:
  1587 ;;		_SYSTEM_Initialize
  1588 ;; This function uses a non-reentrant model
  1589 ;;
  1590                           
  1591                           	psect	text11
  1592  0015DA                     __ptext11:
  1593                           	opt callstack 0
  1594  0015DA                     _OSCILLATOR_Initialize:
  1595                           	opt callstack 25
  1596  0015DA                     
  1597                           ;mcc_generated_files/mcc.c: 62:     OSCCON = 0x70;
  1598  0015DA  0E70               	movlw	112
  1599  0015DC  6ED3               	movwf	211,c	;volatile
  1600                           
  1601                           ;mcc_generated_files/mcc.c: 64:     OSCCON2 = 0x04;
  1602  0015DE  0E04               	movlw	4
  1603  0015E0  6ED2               	movwf	210,c	;volatile
  1604                           
  1605                           ;mcc_generated_files/mcc.c: 66:     OSCTUNE = 0x40;
  1606  0015E2  0E40               	movlw	64
  1607  0015E4  6E9B               	movwf	155,c	;volatile
  1608  0015E6                     l52:
  1609                           
  1610                           ;mcc_generated_files/mcc.c: 68:     while(PLLRDY == 0)
  1611  0015E6  AED2               	btfss	4050,7,c	;volatile
  1612  0015E8  EFF8  F00A         	goto	u121
  1613  0015EC  EFFA  F00A         	goto	u120
  1614  0015F0                     u121:
  1615  0015F0  EFF3  F00A         	goto	l52
  1616  0015F4                     u120:
  1617  0015F4  0012               	return		;funcret
  1618  0015F6                     __end_of_OSCILLATOR_Initialize:
  1619                           	opt callstack 0
  1620                           
  1621 ;; *************** function _INTERRUPT_Initialize *****************
  1622 ;; Defined at:
  1623 ;;		line 52 in file "mcc_generated_files/interrupt_manager.c"
  1624 ;; Parameters:    Size  Location     Type
  1625 ;;		None
  1626 ;; Auto vars:     Size  Location     Type
  1627 ;;		None
  1628 ;; Return value:  Size  Location     Type
  1629 ;;                  1    wreg      void 
  1630 ;; Registers used:
  1631 ;;		None
  1632 ;; Tracked objects:
  1633 ;;		On entry : 0/0
  1634 ;;		On exit  : 0/0
  1635 ;;		Unchanged: 0/0
  1636 ;; Data sizes:     COMRAM   BANK0   BANK1   BANK2   BANK3   BANK4   BANK5   BANK6   BANK7   BANK8   BANK9  BANK10  BANK1
      +1  BANK12  BANK13  BANK14  BANK15
  1637 ;;      Params:         0       0       0       0       0       0       0       0       0       0       0       0       
      +0       0       0       0       0
  1638 ;;      Locals:         0       0       0       0       0       0       0       0       0       0       0       0       
      +0       0       0       0       0
  1639 ;;      Temps:          0       0       0       0       0       0       0       0       0       0       0       0       
      +0       0       0       0       0
  1640 ;;      Totals:         0       0       0       0       0       0       0       0       0       0       0       0       
      +0       0       0       0       0
  1641 ;;Total ram usage:        0 bytes
  1642 ;; Hardware stack levels used:    1
  1643 ;; Hardware stack levels required when called:    4
  1644 ;; This function calls:
  1645 ;;		Nothing
  1646 ;; This function is called by:
  1647 ;;		_SYSTEM_Initialize
  1648 ;; This function uses a non-reentrant model
  1649 ;;
  1650                           
  1651                           	psect	text12
  1652  00167C                     __ptext12:
  1653                           	opt callstack 0
  1654  00167C                     _INTERRUPT_Initialize:
  1655                           	opt callstack 25
  1656  00167C                     
  1657                           ;mcc_generated_files/interrupt_manager.c: 55:     RCONbits.IPEN = 0;
  1658  00167C  9ED0               	bcf	208,7,c	;volatile
  1659  00167E  0012               	return		;funcret
  1660  001680                     __end_of_INTERRUPT_Initialize:
  1661                           	opt callstack 0
  1662                           
  1663 ;; *************** function _EUSART1_Initialize *****************
  1664 ;; Defined at:
  1665 ;;		line 88 in file "mcc_generated_files/eusart1.c"
  1666 ;; Parameters:    Size  Location     Type
  1667 ;;		None
  1668 ;; Auto vars:     Size  Location     Type
  1669 ;;		None
  1670 ;; Return value:  Size  Location     Type
  1671 ;;                  1    wreg      void 
  1672 ;; Registers used:
  1673 ;;		wreg, status,2, status,0, cstack
  1674 ;; Tracked objects:
  1675 ;;		On entry : 0/0
  1676 ;;		On exit  : 0/0
  1677 ;;		Unchanged: 0/0
  1678 ;; Data sizes:     COMRAM   BANK0   BANK1   BANK2   BANK3   BANK4   BANK5   BANK6   BANK7   BANK8   BANK9  BANK10  BANK1
      +1  BANK12  BANK13  BANK14  BANK15
  1679 ;;      Params:         0       0       0       0       0       0       0       0       0       0       0       0       
      +0       0       0       0       0
  1680 ;;      Locals:         0       0       0       0       0       0       0       0       0       0       0       0       
      +0       0       0       0       0
  1681 ;;      Temps:          0       0       0       0       0       0       0       0       0       0       0       0       
      +0       0       0       0       0
  1682 ;;      Totals:         0       0       0       0       0       0       0       0       0       0       0       0       
      +0       0       0       0       0
  1683 ;;Total ram usage:        0 bytes
  1684 ;; Hardware stack levels used:    1
  1685 ;; Hardware stack levels required when called:    5
  1686 ;; This function calls:
  1687 ;;		_EUSART1_SetErrorHandler
  1688 ;;		_EUSART1_SetFramingErrorHandler
  1689 ;;		_EUSART1_SetOverrunErrorHandler
  1690 ;;		_EUSART1_SetRxInterruptHandler
  1691 ;;		_EUSART1_SetTxInterruptHandler
  1692 ;; This function is called by:
  1693 ;;		_SYSTEM_Initialize
  1694 ;; This function uses a non-reentrant model
  1695 ;;
  1696                           
  1697                           	psect	text13
  1698  001348                     __ptext13:
  1699                           	opt callstack 0
  1700  001348                     _EUSART1_Initialize:
  1701                           	opt callstack 24
  1702  001348                     
  1703                           ;mcc_generated_files/eusart1.c: 91:     PIE1bits.RC1IE = 0;
  1704  001348  9A9D               	bcf	157,5,c	;volatile
  1705  00134A                     
  1706                           ;mcc_generated_files/eusart1.c: 92:     EUSART1_SetRxInterruptHandler(EUSART1_Receive_IS
      +                          R);
  1707  00134A  0EF8               	movlw	low _EUSART1_Receive_ISR
  1708  00134C  6E05               	movwf	EUSART1_SetRxInterruptHandler@interruptHandler^0,c
  1709  00134E  0E11               	movlw	high _EUSART1_Receive_ISR
  1710  001350  6E06               	movwf	(EUSART1_SetRxInterruptHandler@interruptHandler+1)^0,c
  1711  001352  EC24  F00B         	call	_EUSART1_SetRxInterruptHandler	;wreg free
  1712  001356                     
  1713                           ;mcc_generated_files/eusart1.c: 93:     PIE1bits.TX1IE = 0;
  1714  001356  989D               	bcf	157,4,c	;volatile
  1715                           
  1716                           ;mcc_generated_files/eusart1.c: 94:     EUSART1_SetTxInterruptHandler(EUSART1_Transmit_I
      +                          SR);
  1717  001358  0E20               	movlw	low _EUSART1_Transmit_ISR
  1718  00135A  6E05               	movwf	EUSART1_SetTxInterruptHandler@interruptHandler^0,c
  1719  00135C  0E15               	movlw	high _EUSART1_Transmit_ISR
  1720  00135E  6E06               	movwf	(EUSART1_SetTxInterruptHandler@interruptHandler+1)^0,c
  1721  001360  EC1F  F00B         	call	_EUSART1_SetTxInterruptHandler	;wreg free
  1722  001364                     
  1723                           ;mcc_generated_files/eusart1.c: 98:     BAUDCON1 = 0x08;
  1724  001364  0E08               	movlw	8
  1725  001366  6EB8               	movwf	184,c	;volatile
  1726  001368                     
  1727                           ;mcc_generated_files/eusart1.c: 101:     RCSTA1 = 0x90;
  1728  001368  0E90               	movlw	144
  1729  00136A  6EAB               	movwf	171,c	;volatile
  1730  00136C                     
  1731                           ;mcc_generated_files/eusart1.c: 104:     TXSTA1 = 0x24;
  1732  00136C  0E24               	movlw	36
  1733  00136E  6EAC               	movwf	172,c	;volatile
  1734  001370                     
  1735                           ;mcc_generated_files/eusart1.c: 107:     SPBRG1 = 0x15;
  1736  001370  0E15               	movlw	21
  1737  001372  6EAF               	movwf	175,c	;volatile
  1738  001374                     
  1739                           ;mcc_generated_files/eusart1.c: 110:     SPBRGH1 = 0x01;
  1740  001374  0E01               	movlw	1
  1741  001376  6EB0               	movwf	176,c	;volatile
  1742  001378                     
  1743                           ;mcc_generated_files/eusart1.c: 113:     EUSART1_SetFramingErrorHandler(EUSART1_DefaultF
      +                          ramingErrorHandler);
  1744  001378  0E80               	movlw	low _EUSART1_DefaultFramingErrorHandler
  1745  00137A  6E05               	movwf	EUSART1_SetFramingErrorHandler@interruptHandler^0,c
  1746  00137C  0E16               	movlw	high _EUSART1_DefaultFramingErrorHandler
  1747  00137E  6E06               	movwf	(EUSART1_SetFramingErrorHandler@interruptHandler+1)^0,c
  1748  001380  EC2E  F00B         	call	_EUSART1_SetFramingErrorHandler	;wreg free
  1749  001384                     
  1750                           ;mcc_generated_files/eusart1.c: 114:     EUSART1_SetOverrunErrorHandler(EUSART1_DefaultO
      +                          verrunErrorHandler);
  1751  001384  0E70               	movlw	low _EUSART1_DefaultOverrunErrorHandler
  1752  001386  6E05               	movwf	EUSART1_SetOverrunErrorHandler@interruptHandler^0,c
  1753  001388  0E16               	movlw	high _EUSART1_DefaultOverrunErrorHandler
  1754  00138A  6E06               	movwf	(EUSART1_SetOverrunErrorHandler@interruptHandler+1)^0,c
  1755  00138C  EC29  F00B         	call	_EUSART1_SetOverrunErrorHandler	;wreg free
  1756  001390                     
  1757                           ;mcc_generated_files/eusart1.c: 115:     EUSART1_SetErrorHandler(EUSART1_DefaultErrorHan
      +                          dler);
  1758  001390  0E76               	movlw	low _EUSART1_DefaultErrorHandler
  1759  001392  6E05               	movwf	EUSART1_SetErrorHandler@interruptHandler^0,c
  1760  001394  0E16               	movlw	high _EUSART1_DefaultErrorHandler
  1761  001396  6E06               	movwf	(EUSART1_SetErrorHandler@interruptHandler+1)^0,c
  1762  001398  EC33  F00B         	call	_EUSART1_SetErrorHandler	;wreg free
  1763                           
  1764                           ;mcc_generated_files/eusart1.c: 117:     eusart1RxLastError.status = 0;
  1765  00139C  0E00               	movlw	0
  1766  00139E  6E40               	movwf	_eusart1RxLastError^0,c	;volatile
  1767                           
  1768                           ;mcc_generated_files/eusart1.c: 120:     eusart1TxHead = 0;
  1769  0013A0  0E00               	movlw	0
  1770  0013A2  6E46               	movwf	_eusart1TxHead^0,c	;volatile
  1771                           
  1772                           ;mcc_generated_files/eusart1.c: 121:     eusart1TxTail = 0;
  1773  0013A4  0E00               	movlw	0
  1774  0013A6  6E45               	movwf	_eusart1TxTail^0,c	;volatile
  1775                           
  1776                           ;mcc_generated_files/eusart1.c: 122:     eusart1TxBufferRemaining = sizeof(eusart1TxBuff
      +                          er);
  1777  0013A8  0E40               	movlw	64
  1778  0013AA  6E44               	movwf	_eusart1TxBufferRemaining^0,c	;volatile
  1779                           
  1780                           ;mcc_generated_files/eusart1.c: 124:     eusart1RxHead = 0;
  1781  0013AC  0E00               	movlw	0
  1782  0013AE  6E43               	movwf	_eusart1RxHead^0,c	;volatile
  1783                           
  1784                           ;mcc_generated_files/eusart1.c: 125:     eusart1RxTail = 0;
  1785  0013B0  0E00               	movlw	0
  1786  0013B2  6E42               	movwf	_eusart1RxTail^0,c	;volatile
  1787                           
  1788                           ;mcc_generated_files/eusart1.c: 126:     eusart1RxCount = 0;
  1789  0013B4  0E00               	movlw	0
  1790  0013B6  6E41               	movwf	_eusart1RxCount^0,c	;volatile
  1791  0013B8                     
  1792                           ;mcc_generated_files/eusart1.c: 129:     PIE1bits.RC1IE = 1;
  1793  0013B8  8A9D               	bsf	157,5,c	;volatile
  1794  0013BA  0012               	return		;funcret
  1795  0013BC                     __end_of_EUSART1_Initialize:
  1796                           	opt callstack 0
  1797                           
  1798 ;; *************** function _EUSART1_SetTxInterruptHandler *****************
  1799 ;; Defined at:
  1800 ;;		line 285 in file "mcc_generated_files/eusart1.c"
  1801 ;; Parameters:    Size  Location     Type
  1802 ;;  interruptHan    2    4[COMRAM] PTR FTN()void 
  1803 ;;		 -> EUSART1_Transmit_ISR(1), 
  1804 ;; Auto vars:     Size  Location     Type
  1805 ;;		None
  1806 ;; Return value:  Size  Location     Type
  1807 ;;                  1    wreg      void 
  1808 ;; Registers used:
  1809 ;;		wreg, status,2, status,0
  1810 ;; Tracked objects:
  1811 ;;		On entry : 0/0
  1812 ;;		On exit  : 0/0
  1813 ;;		Unchanged: 0/0
  1814 ;; Data sizes:     COMRAM   BANK0   BANK1   BANK2   BANK3   BANK4   BANK5   BANK6   BANK7   BANK8   BANK9  BANK10  BANK1
      +1  BANK12  BANK13  BANK14  BANK15
  1815 ;;      Params:         2       0       0       0       0       0       0       0       0       0       0       0       
      +0       0       0       0       0
  1816 ;;      Locals:         0       0       0       0       0       0       0       0       0       0       0       0       
      +0       0       0       0       0
  1817 ;;      Temps:          0       0       0       0       0       0       0       0       0       0       0       0       
      +0       0       0       0       0
  1818 ;;      Totals:         2       0       0       0       0       0       0       0       0       0       0       0       
      +0       0       0       0       0
  1819 ;;Total ram usage:        2 bytes
  1820 ;; Hardware stack levels used:    1
  1821 ;; Hardware stack levels required when called:    4
  1822 ;; This function calls:
  1823 ;;		Nothing
  1824 ;; This function is called by:
  1825 ;;		_EUSART1_Initialize
  1826 ;; This function uses a non-reentrant model
  1827 ;;
  1828                           
  1829                           	psect	text14
  1830  00163E                     __ptext14:
  1831                           	opt callstack 0
  1832  00163E                     _EUSART1_SetTxInterruptHandler:
  1833                           	opt callstack 24
  1834  00163E                     
  1835                           ;mcc_generated_files/eusart1.c: 286:     EUSART1_TxDefaultInterruptHandler = interruptHa
      +                          ndler;
  1836  00163E  C005  F03E         	movff	EUSART1_SetTxInterruptHandler@interruptHandler,_EUSART1_TxDefaultInterruptHandler
  1837  001642  C006  F03F         	movff	EUSART1_SetTxInterruptHandler@interruptHandler+1,_EUSART1_TxDefaultInterruptHandl
      +                          er+1
  1838  001646  0012               	return		;funcret
  1839  001648                     __end_of_EUSART1_SetTxInterruptHandler:
  1840                           	opt callstack 0
  1841                           
  1842 ;; *************** function _EUSART1_SetRxInterruptHandler *****************
  1843 ;; Defined at:
  1844 ;;		line 289 in file "mcc_generated_files/eusart1.c"
  1845 ;; Parameters:    Size  Location     Type
  1846 ;;  interruptHan    2    4[COMRAM] PTR FTN()void 
  1847 ;;		 -> EUSART1_Receive_ISR(1), 
  1848 ;; Auto vars:     Size  Location     Type
  1849 ;;		None
  1850 ;; Return value:  Size  Location     Type
  1851 ;;                  1    wreg      void 
  1852 ;; Registers used:
  1853 ;;		wreg, status,2, status,0
  1854 ;; Tracked objects:
  1855 ;;		On entry : 0/0
  1856 ;;		On exit  : 0/0
  1857 ;;		Unchanged: 0/0
  1858 ;; Data sizes:     COMRAM   BANK0   BANK1   BANK2   BANK3   BANK4   BANK5   BANK6   BANK7   BANK8   BANK9  BANK10  BANK1
      +1  BANK12  BANK13  BANK14  BANK15
  1859 ;;      Params:         2       0       0       0       0       0       0       0       0       0       0       0       
      +0       0       0       0       0
  1860 ;;      Locals:         0       0       0       0       0       0       0       0       0       0       0       0       
      +0       0       0       0       0
  1861 ;;      Temps:          0       0       0       0       0       0       0       0       0       0       0       0       
      +0       0       0       0       0
  1862 ;;      Totals:         2       0       0       0       0       0       0       0       0       0       0       0       
      +0       0       0       0       0
  1863 ;;Total ram usage:        2 bytes
  1864 ;; Hardware stack levels used:    1
  1865 ;; Hardware stack levels required when called:    4
  1866 ;; This function calls:
  1867 ;;		Nothing
  1868 ;; This function is called by:
  1869 ;;		_EUSART1_Initialize
  1870 ;; This function uses a non-reentrant model
  1871 ;;
  1872                           
  1873                           	psect	text15
  1874  001648                     __ptext15:
  1875                           	opt callstack 0
  1876  001648                     _EUSART1_SetRxInterruptHandler:
  1877                           	opt callstack 24
  1878  001648                     
  1879                           ;mcc_generated_files/eusart1.c: 290:     EUSART1_RxDefaultInterruptHandler = interruptHa
      +                          ndler;
  1880  001648  C005  F03C         	movff	EUSART1_SetRxInterruptHandler@interruptHandler,_EUSART1_RxDefaultInterruptHandler
  1881  00164C  C006  F03D         	movff	EUSART1_SetRxInterruptHandler@interruptHandler+1,_EUSART1_RxDefaultInterruptHandl
      +                          er+1
  1882  001650  0012               	return		;funcret
  1883  001652                     __end_of_EUSART1_SetRxInterruptHandler:
  1884                           	opt callstack 0
  1885                           
  1886 ;; *************** function _EUSART1_SetOverrunErrorHandler *****************
  1887 ;; Defined at:
  1888 ;;		line 277 in file "mcc_generated_files/eusart1.c"
  1889 ;; Parameters:    Size  Location     Type
  1890 ;;  interruptHan    2    4[COMRAM] PTR FTN()void 
  1891 ;;		 -> EUSART1_DefaultOverrunErrorHandler(1), 
  1892 ;; Auto vars:     Size  Location     Type
  1893 ;;		None
  1894 ;; Return value:  Size  Location     Type
  1895 ;;                  1    wreg      void 
  1896 ;; Registers used:
  1897 ;;		wreg, status,2, status,0
  1898 ;; Tracked objects:
  1899 ;;		On entry : 0/0
  1900 ;;		On exit  : 0/0
  1901 ;;		Unchanged: 0/0
  1902 ;; Data sizes:     COMRAM   BANK0   BANK1   BANK2   BANK3   BANK4   BANK5   BANK6   BANK7   BANK8   BANK9  BANK10  BANK1
      +1  BANK12  BANK13  BANK14  BANK15
  1903 ;;      Params:         2       0       0       0       0       0       0       0       0       0       0       0       
      +0       0       0       0       0
  1904 ;;      Locals:         0       0       0       0       0       0       0       0       0       0       0       0       
      +0       0       0       0       0
  1905 ;;      Temps:          0       0       0       0       0       0       0       0       0       0       0       0       
      +0       0       0       0       0
  1906 ;;      Totals:         2       0       0       0       0       0       0       0       0       0       0       0       
      +0       0       0       0       0
  1907 ;;Total ram usage:        2 bytes
  1908 ;; Hardware stack levels used:    1
  1909 ;; Hardware stack levels required when called:    4
  1910 ;; This function calls:
  1911 ;;		Nothing
  1912 ;; This function is called by:
  1913 ;;		_EUSART1_Initialize
  1914 ;; This function uses a non-reentrant model
  1915 ;;
  1916                           
  1917                           	psect	text16
  1918  001652                     __ptext16:
  1919                           	opt callstack 0
  1920  001652                     _EUSART1_SetOverrunErrorHandler:
  1921                           	opt callstack 24
  1922  001652                     
  1923                           ;mcc_generated_files/eusart1.c: 278:     EUSART1_OverrunErrorHandler = interruptHandler;
  1924  001652  C005  F038         	movff	EUSART1_SetOverrunErrorHandler@interruptHandler,_EUSART1_OverrunErrorHandler
  1925  001656  C006  F039         	movff	EUSART1_SetOverrunErrorHandler@interruptHandler+1,_EUSART1_OverrunErrorHandler+1
  1926  00165A  0012               	return		;funcret
  1927  00165C                     __end_of_EUSART1_SetOverrunErrorHandler:
  1928                           	opt callstack 0
  1929                           
  1930 ;; *************** function _EUSART1_SetFramingErrorHandler *****************
  1931 ;; Defined at:
  1932 ;;		line 273 in file "mcc_generated_files/eusart1.c"
  1933 ;; Parameters:    Size  Location     Type
  1934 ;;  interruptHan    2    4[COMRAM] PTR FTN()void 
  1935 ;;		 -> EUSART1_DefaultFramingErrorHandler(1), 
  1936 ;; Auto vars:     Size  Location     Type
  1937 ;;		None
  1938 ;; Return value:  Size  Location     Type
  1939 ;;                  1    wreg      void 
  1940 ;; Registers used:
  1941 ;;		wreg, status,2, status,0
  1942 ;; Tracked objects:
  1943 ;;		On entry : 0/0
  1944 ;;		On exit  : 0/0
  1945 ;;		Unchanged: 0/0
  1946 ;; Data sizes:     COMRAM   BANK0   BANK1   BANK2   BANK3   BANK4   BANK5   BANK6   BANK7   BANK8   BANK9  BANK10  BANK1
      +1  BANK12  BANK13  BANK14  BANK15
  1947 ;;      Params:         2       0       0       0       0       0       0       0       0       0       0       0       
      +0       0       0       0       0
  1948 ;;      Locals:         0       0       0       0       0       0       0       0       0       0       0       0       
      +0       0       0       0       0
  1949 ;;      Temps:          0       0       0       0       0       0       0       0       0       0       0       0       
      +0       0       0       0       0
  1950 ;;      Totals:         2       0       0       0       0       0       0       0       0       0       0       0       
      +0       0       0       0       0
  1951 ;;Total ram usage:        2 bytes
  1952 ;; Hardware stack levels used:    1
  1953 ;; Hardware stack levels required when called:    4
  1954 ;; This function calls:
  1955 ;;		Nothing
  1956 ;; This function is called by:
  1957 ;;		_EUSART1_Initialize
  1958 ;; This function uses a non-reentrant model
  1959 ;;
  1960                           
  1961                           	psect	text17
  1962  00165C                     __ptext17:
  1963                           	opt callstack 0
  1964  00165C                     _EUSART1_SetFramingErrorHandler:
  1965                           	opt callstack 24
  1966  00165C                     
  1967                           ;mcc_generated_files/eusart1.c: 274:     EUSART1_FramingErrorHandler = interruptHandler;
  1968  00165C  C005  F03A         	movff	EUSART1_SetFramingErrorHandler@interruptHandler,_EUSART1_FramingErrorHandler
  1969  001660  C006  F03B         	movff	EUSART1_SetFramingErrorHandler@interruptHandler+1,_EUSART1_FramingErrorHandler+1
  1970  001664  0012               	return		;funcret
  1971  001666                     __end_of_EUSART1_SetFramingErrorHandler:
  1972                           	opt callstack 0
  1973                           
  1974 ;; *************** function _EUSART1_SetErrorHandler *****************
  1975 ;; Defined at:
  1976 ;;		line 281 in file "mcc_generated_files/eusart1.c"
  1977 ;; Parameters:    Size  Location     Type
  1978 ;;  interruptHan    2    4[COMRAM] PTR FTN()void 
  1979 ;;		 -> EUSART1_DefaultErrorHandler(1), 
  1980 ;; Auto vars:     Size  Location     Type
  1981 ;;		None
  1982 ;; Return value:  Size  Location     Type
  1983 ;;                  1    wreg      void 
  1984 ;; Registers used:
  1985 ;;		wreg, status,2, status,0
  1986 ;; Tracked objects:
  1987 ;;		On entry : 0/0
  1988 ;;		On exit  : 0/0
  1989 ;;		Unchanged: 0/0
  1990 ;; Data sizes:     COMRAM   BANK0   BANK1   BANK2   BANK3   BANK4   BANK5   BANK6   BANK7   BANK8   BANK9  BANK10  BANK1
      +1  BANK12  BANK13  BANK14  BANK15
  1991 ;;      Params:         2       0       0       0       0       0       0       0       0       0       0       0       
      +0       0       0       0       0
  1992 ;;      Locals:         0       0       0       0       0       0       0       0       0       0       0       0       
      +0       0       0       0       0
  1993 ;;      Temps:          0       0       0       0       0       0       0       0       0       0       0       0       
      +0       0       0       0       0
  1994 ;;      Totals:         2       0       0       0       0       0       0       0       0       0       0       0       
      +0       0       0       0       0
  1995 ;;Total ram usage:        2 bytes
  1996 ;; Hardware stack levels used:    1
  1997 ;; Hardware stack levels required when called:    4
  1998 ;; This function calls:
  1999 ;;		Nothing
  2000 ;; This function is called by:
  2001 ;;		_EUSART1_Initialize
  2002 ;; This function uses a non-reentrant model
  2003 ;;
  2004                           
  2005                           	psect	text18
  2006  001666                     __ptext18:
  2007                           	opt callstack 0
  2008  001666                     _EUSART1_SetErrorHandler:
  2009                           	opt callstack 24
  2010  001666                     
  2011                           ;mcc_generated_files/eusart1.c: 282:     EUSART1_ErrorHandler = interruptHandler;
  2012  001666  C005  F036         	movff	EUSART1_SetErrorHandler@interruptHandler,_EUSART1_ErrorHandler
  2013  00166A  C006  F037         	movff	EUSART1_SetErrorHandler@interruptHandler+1,_EUSART1_ErrorHandler+1
  2014  00166E  0012               	return		;funcret
  2015  001670                     __end_of_EUSART1_SetErrorHandler:
  2016                           	opt callstack 0
  2017                           
  2018 ;; *************** function _INTERRUPT_InterruptManager *****************
  2019 ;; Defined at:
  2020 ;;		line 58 in file "mcc_generated_files/interrupt_manager.c"
  2021 ;; Parameters:    Size  Location     Type
  2022 ;;		None
  2023 ;; Auto vars:     Size  Location     Type
  2024 ;;		None
  2025 ;; Return value:  Size  Location     Type
  2026 ;;                  1    wreg      void 
  2027 ;; Registers used:
  2028 ;;		wreg, fsr2l, fsr2h, status,2, status,0, pclath, tosl, cstack
  2029 ;; Tracked objects:
  2030 ;;		On entry : 0/0
  2031 ;;		On exit  : 0/0
  2032 ;;		Unchanged: 0/0
  2033 ;; Data sizes:     COMRAM   BANK0   BANK1   BANK2   BANK3   BANK4   BANK5   BANK6   BANK7   BANK8   BANK9  BANK10  BANK1
      +1  BANK12  BANK13  BANK14  BANK15
  2034 ;;      Params:         0       0       0       0       0       0       0       0       0       0       0       0       
      +0       0       0       0       0
  2035 ;;      Locals:         0       0       0       0       0       0       0       0       0       0       0       0       
      +0       0       0       0       0
  2036 ;;      Temps:          4       0       0       0       0       0       0       0       0       0       0       0       
      +0       0       0       0       0
  2037 ;;      Totals:         4       0       0       0       0       0       0       0       0       0       0       0       
      +0       0       0       0       0
  2038 ;;Total ram usage:        4 bytes
  2039 ;; Hardware stack levels used:    1
  2040 ;; Hardware stack levels required when called:    3
  2041 ;; This function calls:
  2042 ;;		Absolute function
  2043 ;;		_EUSART1_Receive_ISR
  2044 ;;		_EUSART1_Transmit_ISR
  2045 ;; This function is called by:
  2046 ;;		Interrupt level 2
  2047 ;; This function uses a non-reentrant model
  2048 ;;
  2049                           
  2050                           	psect	intcode
  2051  000008                     __pintcode:
  2052                           	opt callstack 0
  2053  000008                     _INTERRUPT_InterruptManager:
  2054                           	opt callstack 20
  2055                           
  2056                           ;incstack = 0
  2057  000008  825B               	bsf	int$flags,1,c	;set compiler interrupt flag (level 2)
  2058  00000A  CFFA F001          	movff	pclath,??_INTERRUPT_InterruptManager
  2059  00000E  CFFB F002          	movff	pclatu,??_INTERRUPT_InterruptManager+1
  2060  000012  CFD9 F003          	movff	fsr2l,??_INTERRUPT_InterruptManager+2
  2061  000016  CFDA F004          	movff	fsr2h,??_INTERRUPT_InterruptManager+3
  2062  00001A                     
  2063                           ;mcc_generated_files/interrupt_manager.c: 61:     if(INTCONbits.PEIE == 1)
  2064  00001A  ACF2               	btfss	242,6,c	;volatile
  2065  00001C  EF12  F000         	goto	i2u73_41
  2066  000020  EF14  F000         	goto	i2u73_40
  2067  000024                     i2u73_41:
  2068  000024  EF4C  F000         	goto	i2l81
  2069  000028                     i2u73_40:
  2070  000028                     
  2071                           ;mcc_generated_files/interrupt_manager.c: 62:     {;mcc_generated_files/interrupt_manage
      +                          r.c: 63:         if(PIE1bits.TX1IE == 1 && PIR1bits.TX1IF == 1)
  2072  000028  A89D               	btfss	157,4,c	;volatile
  2073  00002A  EF19  F000         	goto	i2u74_41
  2074  00002E  EF1B  F000         	goto	i2u74_40
  2075  000032                     i2u74_41:
  2076  000032  EF30  F000         	goto	i2l76
  2077  000036                     i2u74_40:
  2078  000036  A89E               	btfss	158,4,c	;volatile
  2079  000038  EF20  F000         	goto	i2u75_41
  2080  00003C  EF22  F000         	goto	i2u75_40
  2081  000040                     i2u75_41:
  2082  000040  EF30  F000         	goto	i2l76
  2083  000044                     i2u75_40:
  2084  000044                     
  2085                           ;mcc_generated_files/interrupt_manager.c: 64:         {;mcc_generated_files/interrupt_ma
      +                          nager.c: 65:             EUSART1_TxDefaultInterruptHandler();
  2086  000044  D802               	call	i2u76_48
  2087  000046  EF2E  F000         	goto	i2u76_49
  2088  00004A                     i2u76_48:
  2089  00004A  0005               	push	
  2090  00004C  6EFA               	movwf	pclath,c
  2091  00004E  503E               	movf	_EUSART1_TxDefaultInterruptHandler^0,w,c
  2092  000050  6EFD               	movwf	tosl,c
  2093  000052  503F               	movf	(_EUSART1_TxDefaultInterruptHandler+1)^0,w,c
  2094  000054  6EFE               	movwf	tosh,c
  2095  000056  6AFF               	clrf	tosu,c
  2096  000058  50FA               	movf	pclath,w,c
  2097  00005A  0012               	return		;indir
  2098  00005C                     i2u76_49:
  2099                           
  2100                           ;mcc_generated_files/interrupt_manager.c: 66:         }
  2101  00005C  EF4C  F000         	goto	i2l81
  2102  000060                     i2l76:
  2103  000060  AA9D               	btfss	157,5,c	;volatile
  2104  000062  EF35  F000         	goto	i2u77_41
  2105  000066  EF37  F000         	goto	i2u77_40
  2106  00006A                     i2u77_41:
  2107  00006A  EF4C  F000         	goto	i2l77
  2108  00006E                     i2u77_40:
  2109  00006E  AA9E               	btfss	158,5,c	;volatile
  2110  000070  EF3C  F000         	goto	i2u78_41
  2111  000074  EF3E  F000         	goto	i2u78_40
  2112  000078                     i2u78_41:
  2113  000078  EF4C  F000         	goto	i2l77
  2114  00007C                     i2u78_40:
  2115  00007C                     
  2116                           ;mcc_generated_files/interrupt_manager.c: 68:         {;mcc_generated_files/interrupt_ma
      +                          nager.c: 69:             EUSART1_RxDefaultInterruptHandler();
  2117  00007C  D802               	call	i2u79_48
  2118  00007E  EF4A  F000         	goto	i2u79_49
  2119  000082                     i2u79_48:
  2120  000082  0005               	push	
  2121  000084  6EFA               	movwf	pclath,c
  2122  000086  503C               	movf	_EUSART1_RxDefaultInterruptHandler^0,w,c
  2123  000088  6EFD               	movwf	tosl,c
  2124  00008A  503D               	movf	(_EUSART1_RxDefaultInterruptHandler+1)^0,w,c
  2125  00008C  6EFE               	movwf	tosh,c
  2126  00008E  6AFF               	clrf	tosu,c
  2127  000090  50FA               	movf	pclath,w,c
  2128  000092  0012               	return		;indir
  2129  000094                     i2u79_49:
  2130                           
  2131                           ;mcc_generated_files/interrupt_manager.c: 70:         }
  2132  000094  EF4C  F000         	goto	i2l81
  2133  000098                     i2l77:
  2134  000098                     i2l81:
  2135  000098  C004  FFDA         	movff	??_INTERRUPT_InterruptManager+3,fsr2h
  2136  00009C  C003  FFD9         	movff	??_INTERRUPT_InterruptManager+2,fsr2l
  2137  0000A0  C002  FFFB         	movff	??_INTERRUPT_InterruptManager+1,pclatu
  2138  0000A4  C001  FFFA         	movff	??_INTERRUPT_InterruptManager,pclath
  2139  0000A8  925B               	bcf	int$flags,1,c	;clear compiler interrupt flag (level 2)
  2140  0000AA  0011               	retfie		f
  2141  0000AC                     __end_of_INTERRUPT_InterruptManager:
  2142                           	opt callstack 0
  2143                           
  2144 ;; *************** function _EUSART1_Transmit_ISR *****************
  2145 ;; Defined at:
  2146 ;;		line 206 in file "mcc_generated_files/eusart1.c"
  2147 ;; Parameters:    Size  Location     Type
  2148 ;;		None
  2149 ;; Auto vars:     Size  Location     Type
  2150 ;;		None
  2151 ;; Return value:  Size  Location     Type
  2152 ;;                  1    wreg      void 
  2153 ;; Registers used:
  2154 ;;		wreg, fsr2l, fsr2h, status,2, status,0
  2155 ;; Tracked objects:
  2156 ;;		On entry : 0/0
  2157 ;;		On exit  : 0/0
  2158 ;;		Unchanged: 0/0
  2159 ;; Data sizes:     COMRAM   BANK0   BANK1   BANK2   BANK3   BANK4   BANK5   BANK6   BANK7   BANK8   BANK9  BANK10  BANK1
      +1  BANK12  BANK13  BANK14  BANK15
  2160 ;;      Params:         0       0       0       0       0       0       0       0       0       0       0       0       
      +0       0       0       0       0
  2161 ;;      Locals:         0       0       0       0       0       0       0       0       0       0       0       0       
      +0       0       0       0       0
  2162 ;;      Temps:          0       0       0       0       0       0       0       0       0       0       0       0       
      +0       0       0       0       0
  2163 ;;      Totals:         0       0       0       0       0       0       0       0       0       0       0       0       
      +0       0       0       0       0
  2164 ;;Total ram usage:        0 bytes
  2165 ;; Hardware stack levels used:    1
  2166 ;; This function calls:
  2167 ;;		Nothing
  2168 ;; This function is called by:
  2169 ;;		_EUSART1_Initialize
  2170 ;;		_INTERRUPT_InterruptManager
  2171 ;; This function uses a non-reentrant model
  2172 ;;
  2173                           
  2174                           	psect	text20
  2175  001520                     __ptext20:
  2176                           	opt callstack 0
  2177  001520                     _EUSART1_Transmit_ISR:
  2178                           	opt callstack 22
  2179  001520                     
  2180                           ;mcc_generated_files/eusart1.c: 210:     if(sizeof(eusart1TxBuffer) > eusart1TxBufferRem
      +                          aining)
  2181  001520  0E40               	movlw	64
  2182  001522  6044               	cpfslt	_eusart1TxBufferRemaining^0,c	;volatile
  2183  001524  EF96  F00A         	goto	i2u58_41
  2184  001528  EF98  F00A         	goto	i2u58_40
  2185  00152C                     i2u58_41:
  2186  00152C  EFAE  F00A         	goto	i2l193
  2187  001530                     i2u58_40:
  2188  001530                     
  2189                           ;mcc_generated_files/eusart1.c: 211:     {;mcc_generated_files/eusart1.c: 212:         T
      +                          XREG1 = eusart1TxBuffer[eusart1TxTail++];
  2190  001530  0EA0               	movlw	low _eusart1TxBuffer
  2191  001532  2445               	addwf	_eusart1TxTail^0,w,c	;volatile
  2192  001534  6ED9               	movwf	fsr2l,c
  2193  001536  6ADA               	clrf	fsr2h,c
  2194  001538  0E00               	movlw	high _eusart1TxBuffer
  2195  00153A  22DA               	addwfc	fsr2h,f,c
  2196  00153C  50DF               	movf	indf2,w,c
  2197  00153E  6EAD               	movwf	173,c	;volatile
  2198  001540  2A45               	incf	_eusart1TxTail^0,f,c	;volatile
  2199  001542                     
  2200                           ;mcc_generated_files/eusart1.c: 213:         if(sizeof(eusart1TxBuffer) <= eusart1TxTail
      +                          )
  2201  001542  0E3F               	movlw	63
  2202  001544  6445               	cpfsgt	_eusart1TxTail^0,c	;volatile
  2203  001546  EFA7  F00A         	goto	i2u59_41
  2204  00154A  EFA9  F00A         	goto	i2u59_40
  2205  00154E                     i2u59_41:
  2206  00154E  EFAB  F00A         	goto	i2l1523
  2207  001552                     i2u59_40:
  2208  001552                     
  2209                           ;mcc_generated_files/eusart1.c: 214:         {;mcc_generated_files/eusart1.c: 215:      
      +                                 eusart1TxTail = 0;
  2210  001552  0E00               	movlw	0
  2211  001554  6E45               	movwf	_eusart1TxTail^0,c	;volatile
  2212  001556                     i2l1523:
  2213                           
  2214                           ;mcc_generated_files/eusart1.c: 217:         eusart1TxBufferRemaining++;
  2215  001556  2A44               	incf	_eusart1TxBufferRemaining^0,f,c	;volatile
  2216                           
  2217                           ;mcc_generated_files/eusart1.c: 218:     }
  2218  001558  EFAF  F00A         	goto	i2l196
  2219  00155C                     i2l193:
  2220                           
  2221                           ;mcc_generated_files/eusart1.c: 220:     {;mcc_generated_files/eusart1.c: 221:         P
      +                          IE1bits.TX1IE = 0;
  2222  00155C  989D               	bcf	157,4,c	;volatile
  2223  00155E                     i2l196:
  2224  00155E  0012               	return		;funcret
  2225  001560                     __end_of_EUSART1_Transmit_ISR:
  2226                           	opt callstack 0
  2227                           
  2228 ;; *************** function _EUSART1_Receive_ISR *****************
  2229 ;; Defined at:
  2230 ;;		line 225 in file "mcc_generated_files/eusart1.c"
  2231 ;; Parameters:    Size  Location     Type
  2232 ;;		None
  2233 ;; Auto vars:     Size  Location     Type
  2234 ;;		None
  2235 ;; Return value:  Size  Location     Type
  2236 ;;                  1    wreg      void 
  2237 ;; Registers used:
  2238 ;;		wreg, fsr2l, fsr2h, status,2, status,0, pclath, tosl, cstack
  2239 ;; Tracked objects:
  2240 ;;		On entry : 0/0
  2241 ;;		On exit  : 0/0
  2242 ;;		Unchanged: 0/0
  2243 ;; Data sizes:     COMRAM   BANK0   BANK1   BANK2   BANK3   BANK4   BANK5   BANK6   BANK7   BANK8   BANK9  BANK10  BANK1
      +1  BANK12  BANK13  BANK14  BANK15
  2244 ;;      Params:         0       0       0       0       0       0       0       0       0       0       0       0       
      +0       0       0       0       0
  2245 ;;      Locals:         0       0       0       0       0       0       0       0       0       0       0       0       
      +0       0       0       0       0
  2246 ;;      Temps:          0       0       0       0       0       0       0       0       0       0       0       0       
      +0       0       0       0       0
  2247 ;;      Totals:         0       0       0       0       0       0       0       0       0       0       0       0       
      +0       0       0       0       0
  2248 ;;Total ram usage:        0 bytes
  2249 ;; Hardware stack levels used:    1
  2250 ;; Hardware stack levels required when called:    2
  2251 ;; This function calls:
  2252 ;;		Absolute function
  2253 ;;		_EUSART1_DefaultErrorHandler
  2254 ;;		_EUSART1_DefaultFramingErrorHandler
  2255 ;;		_EUSART1_DefaultOverrunErrorHandler
  2256 ;;		_EUSART1_RxDataHandler
  2257 ;; This function is called by:
  2258 ;;		_EUSART1_Initialize
  2259 ;;		_INTERRUPT_InterruptManager
  2260 ;; This function uses a non-reentrant model
  2261 ;;
  2262                           
  2263                           	psect	text21
  2264  0011F8                     __ptext21:
  2265                           	opt callstack 0
  2266  0011F8                     _EUSART1_Receive_ISR:
  2267                           	opt callstack 20
  2268  0011F8                     
  2269                           ;mcc_generated_files/eusart1.c: 228:     eusart1RxStatusBuffer[eusart1RxHead].status = 0
      +                          ;
  2270  0011F8  0E60               	movlw	low _eusart1RxStatusBuffer
  2271  0011FA  2443               	addwf	_eusart1RxHead^0,w,c	;volatile
  2272  0011FC  6ED9               	movwf	fsr2l,c
  2273  0011FE  6ADA               	clrf	fsr2h,c
  2274  001200  0E00               	movlw	high _eusart1RxStatusBuffer
  2275  001202  22DA               	addwfc	fsr2h,f,c
  2276  001204  0E00               	movlw	0
  2277  001206  6EDF               	movwf	indf2,c
  2278  001208                     
  2279                           ;mcc_generated_files/eusart1.c: 230:     if(RCSTA1bits.FERR){
  2280  001208  A4AB               	btfss	171,2,c	;volatile
  2281  00120A  EF09  F009         	goto	i2u60_41
  2282  00120E  EF0B  F009         	goto	i2u60_40
  2283  001212                     i2u60_41:
  2284  001212  EF1F  F009         	goto	i2l1533
  2285  001216                     i2u60_40:
  2286  001216                     
  2287                           ;mcc_generated_files/eusart1.c: 231:         eusart1RxStatusBuffer[eusart1RxHead].ferr =
      +                           1;
  2288  001216  0E60               	movlw	low _eusart1RxStatusBuffer
  2289  001218  2443               	addwf	_eusart1RxHead^0,w,c	;volatile
  2290  00121A  6ED9               	movwf	fsr2l,c
  2291  00121C  6ADA               	clrf	fsr2h,c
  2292  00121E  0E00               	movlw	high _eusart1RxStatusBuffer
  2293  001220  22DA               	addwfc	fsr2h,f,c
  2294  001222  0100               	movlb	0	; () banked
  2295  001224  82DF               	bsf	indf2,1,c
  2296  001226                     
  2297                           ; BSR set to: 0
  2298                           ;mcc_generated_files/eusart1.c: 232:         EUSART1_FramingErrorHandler();
  2299  001226  D802               	call	i2u61_48
  2300  001228  EF1F  F009         	goto	i2u61_49
  2301  00122C                     i2u61_48:
  2302  00122C  0005               	push	
  2303  00122E  6EFA               	movwf	pclath,c
  2304  001230  503A               	movf	_EUSART1_FramingErrorHandler^0,w,c
  2305  001232  6EFD               	movwf	tosl,c
  2306  001234  503B               	movf	(_EUSART1_FramingErrorHandler+1)^0,w,c
  2307  001236  6EFE               	movwf	tosh,c
  2308  001238  6AFF               	clrf	tosu,c
  2309  00123A  50FA               	movf	pclath,w,c
  2310  00123C  0012               	return		;indir
  2311  00123E                     i2u61_49:
  2312  00123E                     i2l1533:
  2313                           
  2314                           ;mcc_generated_files/eusart1.c: 235:     if(RCSTA1bits.OERR){
  2315  00123E  A2AB               	btfss	171,1,c	;volatile
  2316  001240  EF24  F009         	goto	i2u62_41
  2317  001244  EF26  F009         	goto	i2u62_40
  2318  001248                     i2u62_41:
  2319  001248  EF3A  F009         	goto	i2l1539
  2320  00124C                     i2u62_40:
  2321  00124C                     
  2322                           ;mcc_generated_files/eusart1.c: 236:         eusart1RxStatusBuffer[eusart1RxHead].oerr =
      +                           1;
  2323  00124C  0E60               	movlw	low _eusart1RxStatusBuffer
  2324  00124E  2443               	addwf	_eusart1RxHead^0,w,c	;volatile
  2325  001250  6ED9               	movwf	fsr2l,c
  2326  001252  6ADA               	clrf	fsr2h,c
  2327  001254  0E00               	movlw	high _eusart1RxStatusBuffer
  2328  001256  22DA               	addwfc	fsr2h,f,c
  2329  001258  0100               	movlb	0	; () banked
  2330  00125A  84DF               	bsf	indf2,2,c
  2331  00125C                     
  2332                           ; BSR set to: 0
  2333                           ;mcc_generated_files/eusart1.c: 237:         EUSART1_OverrunErrorHandler();
  2334  00125C  D802               	call	i2u63_48
  2335  00125E  EF3A  F009         	goto	i2u63_49
  2336  001262                     i2u63_48:
  2337  001262  0005               	push	
  2338  001264  6EFA               	movwf	pclath,c
  2339  001266  5038               	movf	_EUSART1_OverrunErrorHandler^0,w,c
  2340  001268  6EFD               	movwf	tosl,c
  2341  00126A  5039               	movf	(_EUSART1_OverrunErrorHandler+1)^0,w,c
  2342  00126C  6EFE               	movwf	tosh,c
  2343  00126E  6AFF               	clrf	tosu,c
  2344  001270  50FA               	movf	pclath,w,c
  2345  001272  0012               	return		;indir
  2346  001274                     i2u63_49:
  2347  001274                     i2l1539:
  2348                           
  2349                           ;mcc_generated_files/eusart1.c: 240:     if(eusart1RxStatusBuffer[eusart1RxHead].status)
      +                          {
  2350  001274  0E60               	movlw	low _eusart1RxStatusBuffer
  2351  001276  2443               	addwf	_eusart1RxHead^0,w,c	;volatile
  2352  001278  6ED9               	movwf	fsr2l,c
  2353  00127A  6ADA               	clrf	fsr2h,c
  2354  00127C  0E00               	movlw	high _eusart1RxStatusBuffer
  2355  00127E  22DA               	addwfc	fsr2h,f,c
  2356  001280  50DF               	movf	indf2,w,c
  2357  001282  B4D8               	btfsc	status,2,c
  2358  001284  EF46  F009         	goto	i2u64_41
  2359  001288  EF48  F009         	goto	i2u64_40
  2360  00128C                     i2u64_41:
  2361  00128C  EF56  F009         	goto	i2l1543
  2362  001290                     i2u64_40:
  2363  001290                     
  2364                           ;mcc_generated_files/eusart1.c: 241:         EUSART1_ErrorHandler();
  2365  001290  D802               	call	i2u65_48
  2366  001292  EF54  F009         	goto	i2u65_49
  2367  001296                     i2u65_48:
  2368  001296  0005               	push	
  2369  001298  6EFA               	movwf	pclath,c
  2370  00129A  5036               	movf	_EUSART1_ErrorHandler^0,w,c
  2371  00129C  6EFD               	movwf	tosl,c
  2372  00129E  5037               	movf	(_EUSART1_ErrorHandler+1)^0,w,c
  2373  0012A0  6EFE               	movwf	tosh,c
  2374  0012A2  6AFF               	clrf	tosu,c
  2375  0012A4  50FA               	movf	pclath,w,c
  2376  0012A6  0012               	return		;indir
  2377  0012A8                     i2u65_49:
  2378                           
  2379                           ;mcc_generated_files/eusart1.c: 242:     } else {
  2380  0012A8  EF58  F009         	goto	i2l203
  2381  0012AC                     i2l1543:
  2382                           
  2383                           ;mcc_generated_files/eusart1.c: 243:         EUSART1_RxDataHandler();
  2384  0012AC  ECC5  F00A         	call	_EUSART1_RxDataHandler	;wreg free
  2385  0012B0                     i2l203:
  2386  0012B0  0012               	return		;funcret
  2387  0012B2                     __end_of_EUSART1_Receive_ISR:
  2388                           	opt callstack 0
  2389                           
  2390 ;; *************** function _EUSART1_DefaultOverrunErrorHandler *****************
  2391 ;; Defined at:
  2392 ;;		line 261 in file "mcc_generated_files/eusart1.c"
  2393 ;; Parameters:    Size  Location     Type
  2394 ;;		None
  2395 ;; Auto vars:     Size  Location     Type
  2396 ;;		None
  2397 ;; Return value:  Size  Location     Type
  2398 ;;                  1    wreg      void 
  2399 ;; Registers used:
  2400 ;;		None
  2401 ;; Tracked objects:
  2402 ;;		On entry : 0/0
  2403 ;;		On exit  : 0/0
  2404 ;;		Unchanged: 0/0
  2405 ;; Data sizes:     COMRAM   BANK0   BANK1   BANK2   BANK3   BANK4   BANK5   BANK6   BANK7   BANK8   BANK9  BANK10  BANK1
      +1  BANK12  BANK13  BANK14  BANK15
  2406 ;;      Params:         0       0       0       0       0       0       0       0       0       0       0       0       
      +0       0       0       0       0
  2407 ;;      Locals:         0       0       0       0       0       0       0       0       0       0       0       0       
      +0       0       0       0       0
  2408 ;;      Temps:          0       0       0       0       0       0       0       0       0       0       0       0       
      +0       0       0       0       0
  2409 ;;      Totals:         0       0       0       0       0       0       0       0       0       0       0       0       
      +0       0       0       0       0
  2410 ;;Total ram usage:        0 bytes
  2411 ;; Hardware stack levels used:    1
  2412 ;; This function calls:
  2413 ;;		Nothing
  2414 ;; This function is called by:
  2415 ;;		_EUSART1_Initialize
  2416 ;;		_EUSART1_Receive_ISR
  2417 ;; This function uses a non-reentrant model
  2418 ;;
  2419                           
  2420                           	psect	text22
  2421  001670                     __ptext22:
  2422                           	opt callstack 0
  2423  001670                     _EUSART1_DefaultOverrunErrorHandler:
  2424                           	opt callstack 21
  2425  001670                     
  2426                           ;mcc_generated_files/eusart1.c: 264:     RCSTA1bits.CREN = 0;
  2427  001670  98AB               	bcf	171,4,c	;volatile
  2428                           
  2429                           ;mcc_generated_files/eusart1.c: 265:     RCSTA1bits.CREN = 1;
  2430  001672  88AB               	bsf	171,4,c	;volatile
  2431  001674  0012               	return		;funcret
  2432  001676                     __end_of_EUSART1_DefaultOverrunErrorHandler:
  2433                           	opt callstack 0
  2434                           
  2435 ;; *************** function _EUSART1_DefaultFramingErrorHandler *****************
  2436 ;; Defined at:
  2437 ;;		line 259 in file "mcc_generated_files/eusart1.c"
  2438 ;; Parameters:    Size  Location     Type
  2439 ;;		None
  2440 ;; Auto vars:     Size  Location     Type
  2441 ;;		None
  2442 ;; Return value:  Size  Location     Type
  2443 ;;                  1    wreg      void 
  2444 ;; Registers used:
  2445 ;;		None
  2446 ;; Tracked objects:
  2447 ;;		On entry : 0/0
  2448 ;;		On exit  : 0/0
  2449 ;;		Unchanged: 0/0
  2450 ;; Data sizes:     COMRAM   BANK0   BANK1   BANK2   BANK3   BANK4   BANK5   BANK6   BANK7   BANK8   BANK9  BANK10  BANK1
      +1  BANK12  BANK13  BANK14  BANK15
  2451 ;;      Params:         0       0       0       0       0       0       0       0       0       0       0       0       
      +0       0       0       0       0
  2452 ;;      Locals:         0       0       0       0       0       0       0       0       0       0       0       0       
      +0       0       0       0       0
  2453 ;;      Temps:          0       0       0       0       0       0       0       0       0       0       0       0       
      +0       0       0       0       0
  2454 ;;      Totals:         0       0       0       0       0       0       0       0       0       0       0       0       
      +0       0       0       0       0
  2455 ;;Total ram usage:        0 bytes
  2456 ;; Hardware stack levels used:    1
  2457 ;; This function calls:
  2458 ;;		Nothing
  2459 ;; This function is called by:
  2460 ;;		_EUSART1_Initialize
  2461 ;;		_EUSART1_Receive_ISR
  2462 ;; This function uses a non-reentrant model
  2463 ;;
  2464                           
  2465                           	psect	text23
  2466  001680                     __ptext23:
  2467                           	opt callstack 0
  2468  001680                     _EUSART1_DefaultFramingErrorHandler:
  2469                           	opt callstack 21
  2470  001680  0012               	return		;funcret
  2471  001682                     __end_of_EUSART1_DefaultFramingErrorHandler:
  2472                           	opt callstack 0
  2473                           
  2474 ;; *************** function _EUSART1_DefaultErrorHandler *****************
  2475 ;; Defined at:
  2476 ;;		line 269 in file "mcc_generated_files/eusart1.c"
  2477 ;; Parameters:    Size  Location     Type
  2478 ;;		None
  2479 ;; Auto vars:     Size  Location     Type
  2480 ;;		None
  2481 ;; Return value:  Size  Location     Type
  2482 ;;                  1    wreg      void 
  2483 ;; Registers used:
  2484 ;;		wreg, fsr2l, fsr2h, status,2, status,0, cstack
  2485 ;; Tracked objects:
  2486 ;;		On entry : 0/0
  2487 ;;		On exit  : 0/0
  2488 ;;		Unchanged: 0/0
  2489 ;; Data sizes:     COMRAM   BANK0   BANK1   BANK2   BANK3   BANK4   BANK5   BANK6   BANK7   BANK8   BANK9  BANK10  BANK1
      +1  BANK12  BANK13  BANK14  BANK15
  2490 ;;      Params:         0       0       0       0       0       0       0       0       0       0       0       0       
      +0       0       0       0       0
  2491 ;;      Locals:         0       0       0       0       0       0       0       0       0       0       0       0       
      +0       0       0       0       0
  2492 ;;      Temps:          0       0       0       0       0       0       0       0       0       0       0       0       
      +0       0       0       0       0
  2493 ;;      Totals:         0       0       0       0       0       0       0       0       0       0       0       0       
      +0       0       0       0       0
  2494 ;;Total ram usage:        0 bytes
  2495 ;; Hardware stack levels used:    1
  2496 ;; Hardware stack levels required when called:    1
  2497 ;; This function calls:
  2498 ;;		_EUSART1_RxDataHandler
  2499 ;; This function is called by:
  2500 ;;		_EUSART1_Initialize
  2501 ;;		_EUSART1_Receive_ISR
  2502 ;; This function uses a non-reentrant model
  2503 ;;
  2504                           
  2505                           	psect	text24
  2506  001676                     __ptext24:
  2507                           	opt callstack 0
  2508  001676                     _EUSART1_DefaultErrorHandler:
  2509                           	opt callstack 20
  2510  001676                     
  2511                           ;mcc_generated_files/eusart1.c: 270:     EUSART1_RxDataHandler();
  2512  001676  ECC5  F00A         	call	_EUSART1_RxDataHandler	;wreg free
  2513  00167A  0012               	return		;funcret
  2514  00167C                     __end_of_EUSART1_DefaultErrorHandler:
  2515                           	opt callstack 0
  2516                           
  2517 ;; *************** function _EUSART1_RxDataHandler *****************
  2518 ;; Defined at:
  2519 ;;		line 249 in file "mcc_generated_files/eusart1.c"
  2520 ;; Parameters:    Size  Location     Type
  2521 ;;		None
  2522 ;; Auto vars:     Size  Location     Type
  2523 ;;		None
  2524 ;; Return value:  Size  Location     Type
  2525 ;;                  1    wreg      void 
  2526 ;; Registers used:
  2527 ;;		wreg, fsr2l, fsr2h, status,2, status,0
  2528 ;; Tracked objects:
  2529 ;;		On entry : 0/0
  2530 ;;		On exit  : 0/0
  2531 ;;		Unchanged: 0/0
  2532 ;; Data sizes:     COMRAM   BANK0   BANK1   BANK2   BANK3   BANK4   BANK5   BANK6   BANK7   BANK8   BANK9  BANK10  BANK1
      +1  BANK12  BANK13  BANK14  BANK15
  2533 ;;      Params:         0       0       0       0       0       0       0       0       0       0       0       0       
      +0       0       0       0       0
  2534 ;;      Locals:         0       0       0       0       0       0       0       0       0       0       0       0       
      +0       0       0       0       0
  2535 ;;      Temps:          0       0       0       0       0       0       0       0       0       0       0       0       
      +0       0       0       0       0
  2536 ;;      Totals:         0       0       0       0       0       0       0       0       0       0       0       0       
      +0       0       0       0       0
  2537 ;;Total ram usage:        0 bytes
  2538 ;; Hardware stack levels used:    1
  2539 ;; This function calls:
  2540 ;;		Nothing
  2541 ;; This function is called by:
  2542 ;;		_EUSART1_Receive_ISR
  2543 ;;		_EUSART1_DefaultErrorHandler
  2544 ;; This function uses a non-reentrant model
  2545 ;;
  2546                           
  2547                           	psect	text25
  2548  00158A                     __ptext25:
  2549                           	opt callstack 0
  2550  00158A                     _EUSART1_RxDataHandler:
  2551                           	opt callstack 21
  2552  00158A                     
  2553                           ;mcc_generated_files/eusart1.c: 251:     eusart1RxBuffer[eusart1RxHead++] = RCREG1;
  2554  00158A  0E00               	movlw	low _eusart1RxBuffer
  2555  00158C  2443               	addwf	_eusart1RxHead^0,w,c	;volatile
  2556  00158E  6ED9               	movwf	fsr2l,c
  2557  001590  6ADA               	clrf	fsr2h,c
  2558  001592  0E01               	movlw	high _eusart1RxBuffer
  2559  001594  22DA               	addwfc	fsr2h,f,c
  2560  001596  CFAE FFDF          	movff	4014,indf2	;volatile
  2561  00159A  2A43               	incf	_eusart1RxHead^0,f,c	;volatile
  2562  00159C                     
  2563                           ;mcc_generated_files/eusart1.c: 252:     if(sizeof(eusart1RxBuffer) <= eusart1RxHead)
  2564  00159C  0E3F               	movlw	63
  2565  00159E  6443               	cpfsgt	_eusart1RxHead^0,c	;volatile
  2566  0015A0  EFD4  F00A         	goto	i2u54_41
  2567  0015A4  EFD6  F00A         	goto	i2u54_40
  2568  0015A8                     i2u54_41:
  2569  0015A8  EFD8  F00A         	goto	i2l1439
  2570  0015AC                     i2u54_40:
  2571  0015AC                     
  2572                           ;mcc_generated_files/eusart1.c: 253:     {;mcc_generated_files/eusart1.c: 254:         e
      +                          usart1RxHead = 0;
  2573  0015AC  0E00               	movlw	0
  2574  0015AE  6E43               	movwf	_eusart1RxHead^0,c	;volatile
  2575  0015B0                     i2l1439:
  2576                           
  2577                           ;mcc_generated_files/eusart1.c: 256:     eusart1RxCount++;
  2578  0015B0  2A41               	incf	_eusart1RxCount^0,f,c	;volatile
  2579  0015B2  0012               	return		;funcret
  2580  0015B4                     __end_of_EUSART1_RxDataHandler:
  2581                           	opt callstack 0
  2582                           
  2583                           	psect	text26
  2584  000000                     __ptext26:
  2585                           	opt callstack 0
  2586  000000                     
  2587                           	psect	rparam
  2588  0000                     
  2589                           	psect	temp
  2590  00005B                     btemp:
  2591                           	opt callstack 0
  2592  00005B                     	ds	1
  2593  0000                     int$flags	set	btemp
  2594  0000                     wtemp8	set	btemp+1
  2595  0000                     ttemp5	set	btemp+1
  2596  0000                     ttemp6	set	btemp+4
  2597  0000                     ttemp7	set	btemp+8
  2598                           tosu	equ	0xFFF
  2599                           tosh	equ	0xFFE
  2600                           tosl	equ	0xFFD
  2601                           stkptr	equ	0xFFC
  2602                           pclatu	equ	0xFFB
  2603                           pclath	equ	0xFFA
  2604                           pcl	equ	0xFF9
  2605                           tblptru	equ	0xFF8
  2606                           tblptrh	equ	0xFF7
  2607                           tblptrl	equ	0xFF6
  2608                           tablat	equ	0xFF5
  2609                           prodh	equ	0xFF4
  2610                           prodl	equ	0xFF3
  2611                           indf0	equ	0xFEF
  2612                           postinc0	equ	0xFEE
  2613                           postdec0	equ	0xFED
  2614                           preinc0	equ	0xFEC
  2615                           plusw0	equ	0xFEB
  2616                           fsr0h	equ	0xFEA
  2617                           fsr0l	equ	0xFE9
  2618                           wreg	equ	0xFE8
  2619                           indf1	equ	0xFE7
  2620                           postinc1	equ	0xFE6
  2621                           postdec1	equ	0xFE5
  2622                           preinc1	equ	0xFE4
  2623                           plusw1	equ	0xFE3
  2624                           fsr1h	equ	0xFE2
  2625                           fsr1l	equ	0xFE1
  2626                           bsr	equ	0xFE0
  2627                           indf2	equ	0xFDF
  2628                           postinc2	equ	0xFDE
  2629                           postdec2	equ	0xFDD
  2630                           preinc2	equ	0xFDC
  2631                           plusw2	equ	0xFDB
  2632                           fsr2h	equ	0xFDA
  2633                           fsr2l	equ	0xFD9
  2634                           status	equ	0xFD8


Data Sizes:
    Strings     71
    Constant    0
    Data        20
    BSS         253
    Persistent  0
    Stack       0

Auto Spaces:
    Space          Size  Autos    Used
    COMRAM           94     41      90
    BANK0           160      0     160
    BANK1           256      2      66
    BANK2           256      0       0
    BANK3           256      0       0
    BANK4           256      0       0
    BANK5           256      0       0
    BANK6           256      0       0
    BANK7           256      0       0
    BANK8           256      0       0
    BANK9           256      0       0
    BANK10          256      0       0
    BANK11          256      0       0
    BANK12          256      0       0
    BANK13          256      0       0
    BANK14          256      0       0
    BANK15           56      0       0

Pointer List with Targets:

    vfpfcnvrt@ap	PTR PTR void  size(2) Largest target is 2
		 -> printf@ap(COMRAM[2]), 

    printf@fmt	PTR const unsigned char  size(2) Largest target is 25
		 -> STR_3(CODE[22]), STR_2(CODE[25]), STR_1(CODE[24]), 

    printf@ap	PTR void [1] size(2) Largest target is 2
		 -> ?_printf(COMRAM[2]), 

    S1520_IO_FILE$buffer	PTR unsigned char  size(2) Largest target is 0

    fputc@fp.buffer	PTR unsigned char  size(2) Largest target is 0

    fputc@fp	PTR struct _IO_FILE size(2) Largest target is 0
		 -> NULL(NULL[0]), 

    vfprintf@ap	PTR PTR void  size(2) Largest target is 2
		 -> printf@ap(COMRAM[2]), 

    vfprintf@fp	PTR struct _IO_FILE size(2) Largest target is 0
		 -> NULL(NULL[0]), 

    vfprintf@fmt	PTR const unsigned char  size(2) Largest target is 25
		 -> STR_3(CODE[22]), STR_2(CODE[25]), STR_1(CODE[24]), 

    vfprintf@cfmt	PTR unsigned char  size(2) Largest target is 25
		 -> STR_3(CODE[22]), STR_2(CODE[25]), STR_1(CODE[24]), 

    vfpfcnvrt@fp	PTR struct _IO_FILE size(2) Largest target is 0
		 -> NULL(NULL[0]), 

    vfpfcnvrt@fmt	PTR PTR unsigned char  size(2) Largest target is 2
		 -> vfprintf@cfmt(COMRAM[2]), 

    i2c_write@data	PTR unsigned char  size(2) Largest target is 14
		 -> h_string(COMRAM[14]), displayInit(COMRAM[4]), 

    EUSART1_SetRxInterruptHandler@interruptHandler	PTR FTN()void  size(2) Largest target is 1
		 -> EUSART1_Receive_ISR(), 

    EUSART1_SetTxInterruptHandler@interruptHandler	PTR FTN()void  size(2) Largest target is 1
		 -> EUSART1_Transmit_ISR(), 

    EUSART1_SetErrorHandler@interruptHandler	PTR FTN()void  size(2) Largest target is 1
		 -> EUSART1_DefaultErrorHandler(), 

    EUSART1_SetOverrunErrorHandler@interruptHandler	PTR FTN()void  size(2) Largest target is 1
		 -> EUSART1_DefaultOverrunErrorHandler(), 

    EUSART1_SetFramingErrorHandler@interruptHandler	PTR FTN()void  size(2) Largest target is 1
		 -> EUSART1_DefaultFramingErrorHandler(), 

    EUSART1_ErrorHandler	PTR FTN()void  size(2) Largest target is 1
		 -> Absolute function(), EUSART1_DefaultErrorHandler(), 

    EUSART1_OverrunErrorHandler	PTR FTN()void  size(2) Largest target is 1
		 -> Absolute function(), EUSART1_DefaultOverrunErrorHandler(), 

    EUSART1_FramingErrorHandler	PTR FTN()void  size(2) Largest target is 1
		 -> Absolute function(), EUSART1_DefaultFramingErrorHandler(), 

    EUSART1_RxDefaultInterruptHandler	PTR FTN()void  size(2) Largest target is 1
		 -> Absolute function(), EUSART1_Receive_ISR(), 

    EUSART1_TxDefaultInterruptHandler	PTR FTN()void  size(2) Largest target is 1
		 -> Absolute function(), EUSART1_Transmit_ISR(), 


Critical Paths under _main in COMRAM

    _main->_i2c_write
    _i2c_write->_printf
    _printf->_vfprintf
    _vfprintf->_vfpfcnvrt
    _vfpfcnvrt->_fputc
    _fputc->_putch
    _putch->_EUSART1_Write
    _EUSART1_Initialize->_EUSART1_SetErrorHandler
    _EUSART1_Initialize->_EUSART1_SetFramingErrorHandler
    _EUSART1_Initialize->_EUSART1_SetOverrunErrorHandler
    _EUSART1_Initialize->_EUSART1_SetRxInterruptHandler
    _EUSART1_Initialize->_EUSART1_SetTxInterruptHandler

Critical Paths under _INTERRUPT_InterruptManager in COMRAM

    None.

Critical Paths under _main in BANK0

    None.

Critical Paths under _INTERRUPT_InterruptManager in BANK0

    None.

Critical Paths under _main in BANK1

    None.

Critical Paths under _INTERRUPT_InterruptManager in BANK1

    None.

Critical Paths under _main in BANK2

    None.

Critical Paths under _INTERRUPT_InterruptManager in BANK2

    None.

Critical Paths under _main in BANK3

    None.

Critical Paths under _INTERRUPT_InterruptManager in BANK3

    None.

Critical Paths under _main in BANK4

    None.

Critical Paths under _INTERRUPT_InterruptManager in BANK4

    None.

Critical Paths under _main in BANK5

    None.

Critical Paths under _INTERRUPT_InterruptManager in BANK5

    None.

Critical Paths under _main in BANK6

    None.

Critical Paths under _INTERRUPT_InterruptManager in BANK6

    None.

Critical Paths under _main in BANK7

    None.

Critical Paths under _INTERRUPT_InterruptManager in BANK7

    None.

Critical Paths under _main in BANK8

    None.

Critical Paths under _INTERRUPT_InterruptManager in BANK8

    None.

Critical Paths under _main in BANK9

    None.

Critical Paths under _INTERRUPT_InterruptManager in BANK9

    None.

Critical Paths under _main in BANK10

    None.

Critical Paths under _INTERRUPT_InterruptManager in BANK10

    None.

Critical Paths under _main in BANK11

    None.

Critical Paths under _INTERRUPT_InterruptManager in BANK11

    None.

Critical Paths under _main in BANK12

    None.

Critical Paths under _INTERRUPT_InterruptManager in BANK12

    None.

Critical Paths under _main in BANK13

    None.

Critical Paths under _INTERRUPT_InterruptManager in BANK13

    None.

Critical Paths under _main in BANK14

    None.

Critical Paths under _INTERRUPT_InterruptManager in BANK14

    None.

Critical Paths under _main in BANK15

    None.

Critical Paths under _INTERRUPT_InterruptManager in BANK15

    None.

Call Graph Tables:

 ---------------------------------------------------------------------------------
 (Depth) Function   	        Calls       Base Space   Used Autos Params    Refs
 ---------------------------------------------------------------------------------
 (0) _main                                                 2     2      0    2919
                                              0 BANK1      2     2      0
                  _SYSTEM_Initialize
                           _i2c_init
                          _i2c_write
 ---------------------------------------------------------------------------------
 (1) _i2c_write                                            6     3      3    2429
                                             35 COMRAM     6     3      3
                             _printf
 ---------------------------------------------------------------------------------
 (2) _printf                                               6     4      2    1838
                                             29 COMRAM     6     4      2
                           _vfprintf
 ---------------------------------------------------------------------------------
 (3) _vfprintf                                             8     2      6    1558
                                             21 COMRAM     8     2      6
                          _vfpfcnvrt
 ---------------------------------------------------------------------------------
 (4) _vfpfcnvrt                                           40    34      6    1208
                                             15 COMRAM     6     0      6
                              _fputc
 ---------------------------------------------------------------------------------
 (5) _fputc                                                9     5      4     782
                                              6 COMRAM     9     5      4
                              _putch
 ---------------------------------------------------------------------------------
 (6) _putch                                                1     1      0      66
                                              5 COMRAM     1     1      0
                      _EUSART1_Write
 ---------------------------------------------------------------------------------
 (7) _EUSART1_Write                                        1     1      0      44
                                              4 COMRAM     1     1      0
 ---------------------------------------------------------------------------------
 (1) _i2c_init                                             0     0      0       0
 ---------------------------------------------------------------------------------
 (1) _SYSTEM_Initialize                                    0     0      0     490
                 _EUSART1_Initialize
               _INTERRUPT_Initialize
              _OSCILLATOR_Initialize
             _PIN_MANAGER_Initialize
 ---------------------------------------------------------------------------------
 (2) _PIN_MANAGER_Initialize                               0     0      0       0
 ---------------------------------------------------------------------------------
 (2) _OSCILLATOR_Initialize                                0     0      0       0
 ---------------------------------------------------------------------------------
 (2) _INTERRUPT_Initialize                                 0     0      0       0
 ---------------------------------------------------------------------------------
 (2) _EUSART1_Initialize                                   0     0      0     490
            _EUSART1_SetErrorHandler
     _EUSART1_SetFramingErrorHandler
     _EUSART1_SetOverrunErrorHandler
      _EUSART1_SetRxInterruptHandler
      _EUSART1_SetTxInterruptHandler
 ---------------------------------------------------------------------------------
 (3) _EUSART1_SetTxInterruptHandler                        2     0      2      98
                                              4 COMRAM     2     0      2
 ---------------------------------------------------------------------------------
 (3) _EUSART1_SetRxInterruptHandler                        2     0      2      98
                                              4 COMRAM     2     0      2
 ---------------------------------------------------------------------------------
 (3) _EUSART1_SetOverrunErrorHandler                       2     0      2      98
                                              4 COMRAM     2     0      2
 ---------------------------------------------------------------------------------
 (3) _EUSART1_SetFramingErrorHandler                       2     0      2      98
                                              4 COMRAM     2     0      2
 ---------------------------------------------------------------------------------
 (3) _EUSART1_SetErrorHandler                              2     0      2      98
                                              4 COMRAM     2     0      2
 ---------------------------------------------------------------------------------
 Estimated maximum stack depth 7
 ---------------------------------------------------------------------------------
 (Depth) Function   	        Calls       Base Space   Used Autos Params    Refs
 ---------------------------------------------------------------------------------
 (8) _INTERRUPT_InterruptManager                           4     4      0       0
                                              0 COMRAM     4     4      0
                   Absolute function *
                _EUSART1_Receive_ISR *
               _EUSART1_Transmit_ISR *
 ---------------------------------------------------------------------------------
 (9) _EUSART1_Transmit_ISR                                 0     0      0       0
 ---------------------------------------------------------------------------------
 (9) _EUSART1_Receive_ISR                                  0     0      0       0
                   Absolute function *
        _EUSART1_DefaultErrorHandler *
 _EUSART1_DefaultFramingErrorHandler *
 _EUSART1_DefaultOverrunErrorHandler *
              _EUSART1_RxDataHandler
 ---------------------------------------------------------------------------------
 (10) _EUSART1_DefaultOverrunErrorHandler                  0     0      0       0
 ---------------------------------------------------------------------------------
 (10) _EUSART1_DefaultFramingErrorHandler                  0     0      0       0
 ---------------------------------------------------------------------------------
 (10) _EUSART1_DefaultErrorHandler                         0     0      0       0
              _EUSART1_RxDataHandler
 ---------------------------------------------------------------------------------
 (10) _EUSART1_RxDataHandler                               0     0      0       0
 ---------------------------------------------------------------------------------
 (10) Absolute function(Fake)                              0     0      0       0
 ---------------------------------------------------------------------------------
 Estimated maximum stack depth 10
 ---------------------------------------------------------------------------------

 Call Graph Graphs:

 _main (ROOT)
   _SYSTEM_Initialize
     _EUSART1_Initialize
       _EUSART1_SetErrorHandler
       _EUSART1_SetFramingErrorHandler
       _EUSART1_SetOverrunErrorHandler
       _EUSART1_SetRxInterruptHandler
       _EUSART1_SetTxInterruptHandler
     _INTERRUPT_Initialize
     _OSCILLATOR_Initialize
     _PIN_MANAGER_Initialize
   _i2c_init
   _i2c_write
     _printf
       _vfprintf
         _vfpfcnvrt
           _fputc
             _putch
               _EUSART1_Write

 _INTERRUPT_InterruptManager (ROOT)
   Absolute function(Fake) *
   _EUSART1_Receive_ISR *
     Absolute function(Fake) *
     _EUSART1_DefaultErrorHandler *
       _EUSART1_RxDataHandler
     _EUSART1_DefaultFramingErrorHandler *
     _EUSART1_DefaultOverrunErrorHandler *
     _EUSART1_RxDataHandler *
   _EUSART1_Transmit_ISR *

 Address spaces:
Name               Size   Autos  Total    Cost      Usage
BIGRAM             F37      0       0      37        0.0%
EEDATA             400      0       0       0        0.0%
BITBANK14          100      0       0      33        0.0%
BANK14             100      0       0      34        0.0%
BITBANK13          100      0       0      31        0.0%
BANK13             100      0       0      32        0.0%
BITBANK12          100      0       0      29        0.0%
BANK12             100      0       0      30        0.0%
BITBANK11          100      0       0      27        0.0%
BANK11             100      0       0      28        0.0%
BITBANK10          100      0       0      25        0.0%
BANK10             100      0       0      26        0.0%
BITBANK9           100      0       0      23        0.0%
BANK9              100      0       0      24        0.0%
BITBANK8           100      0       0      21        0.0%
BANK8              100      0       0      22        0.0%
BITBANK7           100      0       0      19        0.0%
BANK7              100      0       0      20        0.0%
BITBANK6           100      0       0      17        0.0%
BANK6              100      0       0      18        0.0%
BITBANK5           100      0       0      15        0.0%
BANK5              100      0       0      16        0.0%
BITBANK4           100      0       0      13        0.0%
BANK4              100      0       0      14        0.0%
BITBANK3           100      0       0      10        0.0%
BANK3              100      0       0      11        0.0%
BITBANK2           100      0       0       8        0.0%
BANK2              100      0       0       9        0.0%
BITBANK1           100      0       0       6        0.0%
BANK1              100      2      42       7       25.8%
BITBANK0            A0      0       0       4        0.0%
BANK0               A0      0      A0       5      100.0%
BITCOMRAM           5E      0       0       0        0.0%
COMRAM              5E     29      5A       1       95.7%
BITBANK15           38      0       0      35        0.0%
BANK15              38      0       0      36        0.0%
BITSFR_1             0      0       0     200        0.0%
SFR_1                0      0       0     200        0.0%
BITSFR               0      0       0     200        0.0%
SFR                  0      0       0     200        0.0%
STACK                0      0       0       2        0.0%
NULL                 0      0       0       0        0.0%
ABS                  0      0     13C      12        0.0%
DATA                 0      0     13C       3        0.0%
CODE                 0      0       0       0        0.0%


Microchip Technology PIC18 Macro Assembler V2.10 build 88905656 
Symbol Table                                                                                   Tue Oct 06 14:27:11 2020

                      _eusart1TxBufferRemaining 0044                                              l27 1588  
                                            l52 15E6                                              l70 167E  
                                            l55 15F4                                              l49 1632  
                                  __CFG_CP0$OFF 000000                                    __CFG_CP1$OFF 000000  
                                  __CFG_CP2$OFF 000000                                    __CFG_CP3$OFF 000000  
                                   __CFG_LVP$ON 000000                                             l222 165A  
                                           l302 11F6                                             l231 1650  
                                           l225 166E                                             l219 1664  
                                           l228 1646                                             l156 13BA  
                                           l180 148E                                             l181 14A4  
                                           l190 163C                                             l280 160C  
                                           l184 14D0                                             l360 1138  
                                           l283 1144                                             l292 118A  
                                           l365 1472                                             l285 1152  
                                           l366 147A                                             l294 1198  
                                           l286 1156                                             l288 1164  
                                           l297 11D6                                             l298 11D8  
                                  __CFG_CPB$OFF 000000                                             u120 15F4  
                                           u121 15F0                                             u500 12FE  
                                           u501 12FA                                             u510 1334  
                                           u511 1330                                             u520 1070  
                                           u521 106C                                             u450 148E  
                                           u530 10B8                                    __CFG_CPD$OFF 000000  
                                           u451 148A                                             u531 10B4  
                                           u460 149C                                             u700 11A6  
                                           u461 1498                                             u701 11A2  
                                           u470 14C8                                             u550 1472  
                                           u710 11D6                                             u471 14C4  
                                           u551 146E                                             u711 11D2  
                                           u480 12C4                                             u720 11E6  
                                           u481 12C0                                             u721 11E2  
                                           u490 12D6                                             u491 12D2  
                                           u660 1152                                             u661 114E  
                                           u670 1164                                             u671 1160  
                                           u807 1406                                             u680 1172  
                                           u681 116E                                             u690 1198  
                                           u691 1194                                             tosl 000FFD  
                                           wreg 000FE8                                      _TXSTA1bits 000FAC  
                                          l1052 1346                                            l1401 10C6  
                                          l1171 156C                                            l1403 10DA  
                                          l1067 15D8                                            l1421 1648  
                                          l1173 156E                                            l1413 1100  
                                          l1423 163E                                            l1175 1586  
                                          l1415 1126                                            l1407 10E6  
                                          l1425 165C                                            l1177 167C  
                                          l1169 1560                                            l1361 14A6  
                                          l1409 10F4                                            l1441 141C  
                                          l1601 13FA                                            l1427 1652  
                                          l1451 134A                                            l1179 15DA  
                                          l1363 14B6                                            l1371 14CE  
                                          l1355 147E                                            l1443 1424  
                                          l1429 1666                                            l1461 1370  
                                          l1453 1356                                            l1277 15F6  
                                          l1365 14B8                                            l1357 147E  
                                          l1373 1636                                            l1381 12E0  
                                          l1445 1430                                            l1471 13B8  
                                          l1463 1374                                            l1455 1364  
                                          l1279 1600                                            l1367 14C8  
                                          l1359 149C                                            l1383 12FE  
                                          l1375 12B2                                            l1391 1070  
                                          l1447 1454                                            l1551 117A  
                                          l1465 1378                                            l1457 1368  
                                          l1449 1348                                            l1369 14CC  
                                          l1385 1334                                            l1377 12C4  
                                          l1393 107E                                            l1553 11A6  
                                          l1561 11EA                                            l1545 113C  
                                          l1467 1384                                            l1459 136C  
                                          l1483 1622                                            l1379 12D6  
                                          l1395 108E                                            l1555 11B6  
                                          l1547 1142                                            l1469 1390  
                                          l1485 1626                                            l1397 1092  
                                          l1389 104A                                            l1477 15B4  
                                          l1557 11C2                                            l1549 1172  
                                          l1487 162A                                            l1399 10B8  
                                          l1479 15BC                                            l1559 11C4  
                                          l1591 13BC                                            l1489 162E  
                                          l1593 13C0                                            l1595 13C4  
                                          l1597 13D6                                            l1599 13E8  
                                          STR_1 101A                                            STR_2 1001  
                                          STR_3 1032                                            _LATA 000F89  
                                          _LATB 000F8A                                            _LATC 000F8B  
                                          i2l81 0098                                            i2l76 0060  
                                          i2l77 0098                                            _WPUB 000F61  
                                 _EUSART1_Write 147C                                            _dbuf 00E0  
                                          _main 13BC                                            _prec 0032  
                                          _nout 002E                                            fsr1h 000FE2  
                                          fsr2h 000FDA                                            indf2 000FDF  
                                          fsr1l 000FE1                                            fsr2l 000FD9  
                                          btemp 005B                                   __CFG_BORV$190 000000  
                                          start 00AC                                   __CFG_IESO$OFF 000000  
                                    i2c_write@i 0029                  fp__EUSART1_DefaultErrorHandler 0000  
                                  ___param_bank 000000                  __size_of_OSCILLATOR_Initialize 001C  
                 __end_of_OSCILLATOR_Initialize 15F6                           _eusart1RxStatusBuffer 0060  
                                         ?_main 0001                                  __CFG_DEBUG$OFF 000000  
                                         i2l210 1680                                           i2l203 12B0  
                                         i2l213 1674                                           i2l207 15B2  
                                         i2l216 167A                                           i2l193 155C  
                                         i2l196 155E                                    vfpfcnvrt@fmt 0012  
                                         _TRISA 000F92                                           _TRISB 000F93  
                                         _TRISC 000F94                                   __CFG_WRT0$OFF 000000  
                                 __CFG_WRT1$OFF 000000                                   __CFG_WRT2$OFF 000000  
                                 __CFG_WRT3$OFF 000000                            _EUSART1_Transmit_ISR 1520  
                                __CFG_EBTR0$OFF 000000                                  __CFG_FCMEN$OFF 000000  
                                __CFG_EBTR1$OFF 000000                                  __CFG_EBTR2$OFF 000000  
                                __CFG_EBTR3$OFF 000000                                   __CFG_WRTB$OFF 000000  
                                 __CFG_WRTC$OFF 000000                                   __CFG_WRTD$OFF 000000  
                                __CFG_EBTRB$OFF 000000                                           _flags 0034  
                                         _fputc 12B2                              __CFG_MCLRE$EXTMCLR 000000  
                                         _width 0030                                           _putch 1634  
                                ?_EUSART1_Write 0001                                           pclath 000FFA  
                                         tablat 000FF5                                           ttemp5 005C  
                                         ttemp6 005F                                           ttemp7 0063  
                                         status 000FD8                                           wtemp8 005C  
                                __CFG_HFOFST$ON 000000           fp__EUSART1_DefaultFramingErrorHandler 0000  
    __end_of_EUSART1_DefaultFramingErrorHandler 1682     __size_of_EUSART1_DefaultFramingErrorHandler 0002  
          ??_EUSART1_DefaultFramingErrorHandler 0001             ?_EUSART1_DefaultFramingErrorHandler 0001  
            _EUSART1_DefaultFramingErrorHandler 1680                                  __CFG_PBADEN$ON 000000  
                               __initialization 14D2                      __end_of_EUSART1_Initialize 13BC  
                                  __end_of_main 141C                                __end_of_i2c_init 160E  
                   ?_INTERRUPT_InterruptManager 0001                                          ??_main 0140  
                                 __activetblptr 000003                           ?_EUSART1_Transmit_ISR 0001  
                                        ?_fputc 0007                                          _ANSELA 000F38  
                                        ?_putch 0001                                          _ANSELB 000F39  
                                        _ANSELC 000F3A                                          i2l1431 158A  
                                        i2l1433 159A                                          i2l1521 1552  
                                        i2l1513 1520                                          i2l1435 159C  
                                        i2l1531 1226                                          i2l1523 1556  
                                        i2l1515 1530                                          i2l1437 15AC  
                                        i2l1541 1290                                          i2l1533 123E  
                                        i2l1525 11F8                                          i2l1517 1540  
                                        i2l1439 15B0                                          i2l1543 12AC  
                                        i2l1535 124C                                          i2l1527 1208  
                                        i2l1519 1542                                          i2l1473 1670  
                                        i2l1537 125C                                          i2l1529 1216  
                                        i2l1475 1676                                          i2l1539 1274  
                                        i2l1571 006E                                          i2l1563 001A  
                                        i2l1573 007C                                          i2l1565 0028  
                                __CFG_WDTEN$OFF 000000                                          i2l1567 0036  
                                        i2l1569 0044                                          _RCREG1 000FAE  
                                        _RCSTA1 000FAB                                          _OSCCON 000FD3  
                                        _PLLRDY 007E97                                          _SPBRG1 000FAF  
                                        _SSPBUF 000FC9                                          _TXREG1 000FAD  
                            __size_of_i2c_write 00BE                                          _TXSTA1 000FAC  
                                __CFG_XINST$OFF 000000                                    vfprintf@cfmt 001C  
                                __CFG_STVREN$ON 000000                        ?_EUSART1_SetErrorHandler 0005  
                                        clear_0 14F8                                          clear_1 1504  
                                        clear_2 1510                                          _printf 15B4  
              ??_EUSART1_SetOverrunErrorHandler 0007                 ?_EUSART1_SetOverrunErrorHandler 0005  
                                        fputc@c 0007                                    __pdataCOMRAM 0047  
                                  __mediumconst 0000                                          tblptrh 000FF7  
                                        tblptrl 000FF6                                          tblptru 000FF8  
                              __end_of_vfprintf 147C                                 ??_EUSART1_Write 0005  
                               _eusart1RxBuffer 0100                   __size_of_INTERRUPT_Initialize 0004  
                               _eusart1TxBuffer 00A0                               _SYSTEM_Initialize 1622  
                                    __accesstop 0060                         __end_of__initialization 1516  
                            ?_SYSTEM_Initialize 0001                                   ___rparam_used 000001  
                __size_of_EUSART1_RxDataHandler 002A                   __end_of_EUSART1_RxDataHandler 15B4  
                                __pcstackCOMRAM 0001                             ??_SYSTEM_Initialize 0007  
                                 __end_of_fputc 1348                                   __end_of_putch 163E  
                        ??_EUSART1_Transmit_ISR 0001                               __end_of_i2c_write 11F8  
                   __end_of_EUSART1_Receive_ISR 12B2                                         ??_fputc 000B  
                     __end_of_SYSTEM_Initialize 1634                                         ??_putch 0006  
                                 _eusart1RxHead 0043                                   _eusart1TxHead 0046  
                                 _eusart1RxTail 0042                                      __pbssBANK0 0060  
                                    __pbssBANK1 0100                                   _eusart1TxTail 0045  
             _EUSART1_TxDefaultInterruptHandler 003E                 ??_EUSART1_SetRxInterruptHandler 0007  
                               __CFG_PLLCFG$OFF 000000                                       ?_i2c_init 0001  
               __end_of_EUSART1_SetErrorHandler 1670                              __CFG_CCP2MX$PORTC1 000000  
                            __CFG_CCP3MX$PORTB5 000000                                         ?_printf 001E  
        __end_of_EUSART1_SetFramingErrorHandler 1666         __size_of_EUSART1_SetFramingErrorHandler 000A  
                _EUSART1_SetFramingErrorHandler 165C                    ?_EUSART1_DefaultErrorHandler 0001  
                                       _OSCCON2 000FD2                              __size_of_vfpfcnvrt 00F0  
                                       i2u60_40 1216                                         i2u60_41 1212  
                                       i2u54_40 15AC                                         i2u62_40 124C  
                                       i2u61_48 122C                                         i2u54_41 15A8  
                                       i2u62_41 1248                                         i2u61_49 123E  
                                       _OSCTUNE 000F9B                                         i2u64_40 1290  
                                       i2u63_48 1262                                         i2u64_41 128C  
                                       i2u63_49 1274                                         i2u73_40 0028  
                                       i2u73_41 0024                                         i2u65_48 1296  
                                       i2u58_40 1530                                         i2u74_40 0036  
                                       i2u65_49 12A8                                         i2u58_41 152C  
                                       i2u74_41 0032                                         i2u59_40 1552  
                                       i2u75_40 0044                                         i2u59_41 154E  
                                       i2u75_41 0040                                         _SPBRGH1 000FB0  
                                       i2u77_40 006E                                         i2u76_48 004A  
                                       i2u77_41 006A                                         i2u76_49 005C  
                                       i2u78_40 007C                                         i2u78_41 0078  
                                       i2u79_48 0082                                         i2u79_49 0094  
                                       _SSP1ADD 000FC8                                         _SSP1BUF 000FC9  
                                    ??_i2c_init 0005                                 __CFG_PWRTEN$OFF 000000  
                                       __Hparam 0000                                         __Lparam 0000  
                                     ?_vfprintf 0016                                    __psmallconst 1000  
                                       __pcinit 14D2                                         __ramtop 1000  
                                       __ptext0 13BC                                         __ptext1 113A  
                                       __ptext2 15B4                                         __ptext3 141C  
                                       __ptext4 104A                                         __ptext5 12B2  
                                       __ptext6 1634                                         __ptext7 147C  
                                       __ptext8 15F6                                         __ptext9 1622  
                               __size_of_printf 0026                           _OSCILLATOR_Initialize 15DA  
                            _EUSART1_Initialize 1348                        ??_PIN_MANAGER_Initialize 0005  
                 ??_EUSART1_DefaultErrorHandler 0001                      __size_of_SYSTEM_Initialize 0012  
                          end_of_initialization 1516                             ?_EUSART1_Initialize 0001  
                                       fputc@fp 0009                     _EUSART1_OverrunErrorHandler 0038  
         __end_of_EUSART1_SetRxInterruptHandler 1652          __size_of_EUSART1_SetRxInterruptHandler 000A  
                 _EUSART1_SetRxInterruptHandler 1648                               __end_of_vfpfcnvrt 113A  
                                       postdec1 000FE5                                         postdec2 000FDD  
                                       postinc0 000FEE                                         postinc1 000FE6  
                                       postinc2 000FDE                                      ??_vfprintf 001C  
                          ??_EUSART1_Initialize 0007                                   i2c_write@addr 0027  
                                 i2c_write@data 0024                                       _TRISCbits 000F94  
                       fp__EUSART1_Transmit_ISR 0000                __size_of_EUSART1_SetErrorHandler 000A  
                           EUSART1_Write@txData 0005            __size_of_EUSART1_DefaultErrorHandler 0006  
                  __end_of_INTERRUPT_Initialize 1680                                     vfpfcnvrt@ap 0014  
                                   vfpfcnvrt@fp 0010                                   __pidataCOMRAM 160E  
                        ?_OSCILLATOR_Initialize 0001                                  __end_of_printf 15DA  
                           start_initialization 14D2                 __size_of_PIN_MANAGER_Initialize 002A  
                                     _i2c_write 113A   EUSART1_SetRxInterruptHandler@interruptHandler 0005  
 EUSART1_SetTxInterruptHandler@interruptHandler 0005                                     putch@txData 0006  
                         __end_of_EUSART1_Write 14D2                          fp__EUSART1_Receive_ISR 0000  
                             __size_of_i2c_init 0018                                     vfprintf@fmt 0018  
                         _EUSART1_RxDataHandler 158A                  ?_EUSART1_SetRxInterruptHandler 0005  
                                      ??_printf 0020                                  _eusart1RxCount 0041  
                                   __pbssCOMRAM 002A               _EUSART1_RxDefaultInterruptHandler 003C  
                 __size_of_EUSART1_Transmit_ISR 0040                                   __pcstackBANK1 0140  
                                    ?_i2c_write 0024                 ??_EUSART1_SetTxInterruptHandler 0007  
              ??_EUSART1_SetFramingErrorHandler 0007                 ?_EUSART1_SetFramingErrorHandler 0005  
                  __size_of_EUSART1_Receive_ISR 00BA                          _PIN_MANAGER_Initialize 1560  
                                     __pintcode 0008                    ??_INTERRUPT_InterruptManager 0001  
                              __CFG_PRICLKEN$ON 000000                               __size_of_vfprintf 0060  
                                   __smallconst 1000                                        _BAUDCON1 000FB8  
         fp__EUSART1_DefaultOverrunErrorHandler 0000      __end_of_EUSART1_DefaultOverrunErrorHandler 1676  
   __size_of_EUSART1_DefaultOverrunErrorHandler 0006            ??_EUSART1_DefaultOverrunErrorHandler 0001  
           ?_EUSART1_DefaultOverrunErrorHandler 0001              _EUSART1_DefaultOverrunErrorHandler 1670  
                          _EUSART1_ErrorHandler 0036                         _EUSART1_SetErrorHandler 1666  
                                __size_of_fputc 0096                                  __size_of_putch 000A  
                          _INTERRUPT_Initialize 167C         EUSART1_SetErrorHandler@interruptHandler 0005  
                                      _PIE1bits 000F9D             __size_of_INTERRUPT_InterruptManager 00A4  
                                      _PIR1bits 000F9E                          ?_EUSART1_RxDataHandler 0001  
                                      _RCONbits 000FD0                                __CFG_WDTPS$32768 000000  
                                      _SSP1CON1 000FC6                                        _SSP1CON2 000FC5  
                                   _displayAddr 0048                                     _displayInit 0057  
                                     _vfpfcnvrt 104A                                     ??_i2c_write 0027  
                                   _INTCON2bits 000FF1                                       copy_data0 14E6  
                         ?_INTERRUPT_Initialize 0001                                        _i2c_init 15F6  
         __end_of_EUSART1_SetTxInterruptHandler 1648          __size_of_EUSART1_SetTxInterruptHandler 000A  
                 _EUSART1_SetTxInterruptHandler 163E                                        __Hrparam 0000  
                                    vfprintf@ap 001A                                        __Lrparam 0000  
                                    vfprintf@fp 0016                              __CFG_BOREN$SBORDIS 000000  
                             __CFG_P2BMX$PORTB5 000000                         ??_OSCILLATOR_Initialize 0005  
                   __size_of_EUSART1_Initialize 0074                                      ?_vfpfcnvrt 0010  
                                    _ANSELCbits 000F3A                       ??_EUSART1_SetErrorHandler 0007  
           __end_of_EUSART1_DefaultErrorHandler 167C                     _EUSART1_DefaultErrorHandler 1676  
                                      _data_out 002A                                        __ptext10 1560  
                                      __ptext11 15DA                                        __ptext20 1520  
                                      __ptext12 167C                                        __ptext21 11F8  
                                      __ptext13 1348                                        __ptext22 1670  
                                      __ptext14 163E                                        __ptext23 1680  
                                      __ptext15 1648                                        __ptext24 1676  
                                      __ptext16 1652                                        __ptext25 158A  
                                      __ptext17 165C                                        __ptext26 0000  
                                      __ptext18 1666                                    _SSP1CON2bits 000FC5  
                                      _h_string 0049                                   __size_of_main 0060  
EUSART1_SetOverrunErrorHandler@interruptHandler 0005                                        int$flags 005B  
                                      _vfprintf 141C              __end_of_INTERRUPT_InterruptManager 00AC  
                    _INTERRUPT_InterruptManager 0008                                       printf@fmt 001E  
                                  _tempaddrTC74 0047                                    _SSP1STATbits 000FC7  
                   _EUSART1_FramingErrorHandler 003A                             _EUSART1_Receive_ISR 11F8  
                           i2c_write@targetAddr 0028                                      _INTCONbits 000FF2  
                        ??_INTERRUPT_Initialize 0005                                        intlevel2 0000  
                          ?_EUSART1_Receive_ISR 0001                         ?_PIN_MANAGER_Initialize 0001  
        __end_of_EUSART1_SetOverrunErrorHandler 165C         __size_of_EUSART1_SetOverrunErrorHandler 000A  
                _EUSART1_SetOverrunErrorHandler 1652                                      _RCSTA1bits 000FAB  
                  __end_of_EUSART1_Transmit_ISR 1560                                        printf@ap 0022  
EUSART1_SetFramingErrorHandler@interruptHandler 0005                  ?_EUSART1_SetTxInterruptHandler 0005  
                                   ??_vfpfcnvrt 0016                          __size_of_EUSART1_Write 0056  
                            _eusart1RxLastError 0040                               __CFG_T3CMX$PORTC0 000000  
                         ??_EUSART1_Receive_ISR 0001                  __end_of_PIN_MANAGER_Initialize 158A  
                             __CFG_FOSC$INTIO67 000000                                 i2c_write@length 0026  
                       ??_EUSART1_RxDataHandler 0001  
